(lp0
S'noCV'
p1
acnumpy.core.multiarray
_reconstruct
p2
(cnumpy
ndarray
p3
(I0
tp4
S'b'
p5
tp6
Rp7
(I1
(I39
tp8
cnumpy
dtype
p9
(S'i8'
p10
I0
I1
tp11
Rp12
(I3
S'<'
p13
NNNI-1
I-1
I0
tp14
bI00
S'\x02\x00\x00\x00\x00\x00\x00\x00\x03\x00\x00\x00\x00\x00\x00\x00\x04\x00\x00\x00\x00\x00\x00\x00\x05\x00\x00\x00\x00\x00\x00\x00\x06\x00\x00\x00\x00\x00\x00\x00\x07\x00\x00\x00\x00\x00\x00\x00\x08\x00\x00\x00\x00\x00\x00\x00\t\x00\x00\x00\x00\x00\x00\x00\n\x00\x00\x00\x00\x00\x00\x00\x0b\x00\x00\x00\x00\x00\x00\x00\x0c\x00\x00\x00\x00\x00\x00\x00\r\x00\x00\x00\x00\x00\x00\x00\x0e\x00\x00\x00\x00\x00\x00\x00\x0f\x00\x00\x00\x00\x00\x00\x00\x10\x00\x00\x00\x00\x00\x00\x00\x11\x00\x00\x00\x00\x00\x00\x00\x12\x00\x00\x00\x00\x00\x00\x00\x13\x00\x00\x00\x00\x00\x00\x00\x14\x00\x00\x00\x00\x00\x00\x00\x15\x00\x00\x00\x00\x00\x00\x00\x16\x00\x00\x00\x00\x00\x00\x00\x17\x00\x00\x00\x00\x00\x00\x00\x18\x00\x00\x00\x00\x00\x00\x00\x19\x00\x00\x00\x00\x00\x00\x00\x1a\x00\x00\x00\x00\x00\x00\x00\x1b\x00\x00\x00\x00\x00\x00\x00\x1c\x00\x00\x00\x00\x00\x00\x00\x1d\x00\x00\x00\x00\x00\x00\x00\x1e\x00\x00\x00\x00\x00\x00\x00\x1f\x00\x00\x00\x00\x00\x00\x00 \x00\x00\x00\x00\x00\x00\x00!\x00\x00\x00\x00\x00\x00\x00"\x00\x00\x00\x00\x00\x00\x00#\x00\x00\x00\x00\x00\x00\x00$\x00\x00\x00\x00\x00\x00\x00%\x00\x00\x00\x00\x00\x00\x00&\x00\x00\x00\x00\x00\x00\x00\'\x00\x00\x00\x00\x00\x00\x00(\x00\x00\x00\x00\x00\x00\x00'
p15
tp16
baI10
a(dp17
I10
(lp18
F0.13631840796019912
aF0.1631840796019901
aF0.1661691542288557
aF0.17363184079602
aF0.18258706467661678
aF0.18308457711442794
aF0.18756218905472632
aF0.19950248756218902
aF0.19999999999999996
aF0.20099502487562193
aF0.2064676616915424
aF0.21044776119402986
aF0.21442786069651742
aF0.2199004975124378
aF0.22039800995024872
aF0.2228855721393035
aF0.22437810945273617
aF0.22985074626865676
aF0.2303482587064677
aF0.23631840796019898
aF0.23781094527363178
aF0.23980099502487562
aF0.24328358208955225
aF0.24527363184079598
aF0.246766169154229
aF0.25223880597014925
aF0.254228855721393
aF0.25522388059701484
aF0.2606965174129354
aF0.2691542288557214
aF0.27611940298507465
aF0.27761194029850744
aF0.28358208955223885
aF0.2855721393034826
aF0.3099502487562189
aF0.31194029850746285
aF0.31343283582089554
aF0.32537313432835835
aF0.3487562189054726
asI5
(lp19
F0.1268656716417912
aF0.1288557213930348
aF0.16069651741293534
aF0.16268656716417917
aF0.16368159203980093
aF0.16368159203980093
aF0.17014925373134315
aF0.17014925373134326
aF0.1751243781094527
aF0.18606965174129342
aF0.18955223880597016
aF0.19552238805970146
aF0.2069651741293531
aF0.209452736318408
aF0.2139303482587065
aF0.218407960199005
aF0.21890547263681603
aF0.21940298507462686
aF0.2228855721393035
aF0.22686567164179106
aF0.2288557213930349
aF0.23184079601990049
aF0.23233830845771142
aF0.2333333333333334
aF0.23582089552238794
aF0.23681592039800992
aF0.2383084577114427
aF0.2398009950248754
aF0.24477611940298505
aF0.2472636815920397
aF0.2527363184079603
aF0.2562189054726368
aF0.26119402985074636
aF0.27761194029850755
aF0.28109452736318397
aF0.2830845771144277
aF0.30149253731343284
aF0.31194029850746285
aF0.3338308457711443
asI7
(lp20
F0.1258706467661691
aF0.15572139303482602
aF0.15820895522388057
aF0.15920398009950243
aF0.16666666666666674
aF0.16666666666666674
aF0.1691542288557214
aF0.1721393034825871
aF0.17611940298507456
aF0.18457711442786073
aF0.1855721393034827
aF0.18606965174129342
aF0.18905472636815923
aF0.19502487562189041
aF0.19850746268656694
aF0.20099502487562193
aF0.2079601990049751
aF0.209452736318408
aF0.21343283582089556
aF0.21542288557213918
aF0.2154228855721393
aF0.2228855721393035
aF0.22437810945273617
aF0.22537313432835815
aF0.22537313432835826
aF0.23482587064676608
aF0.23880597014925387
aF0.24179104477611923
aF0.24477611940298516
aF0.24825870646766157
aF0.2517412935323382
aF0.254726368159204
aF0.263681592039801
aF0.2661691542288557
aF0.2666666666666666
aF0.29601990049751237
aF0.30895522388059704
aF0.31194029850746285
aF0.3338308457711443
asa(dp21
I10
(lp22
F0.137037037037037
aF0.17870370370370367
aF0.1564814814814815
aF0.13425925925925924
aF0.1564814814814815
aF0.1564814814814815
aF0.18888888888888886
aF0.19351851851851848
aF0.1675925925925926
aF0.16944444444444445
aF0.19166666666666665
aF0.17500000000000002
aF0.19537037037037042
aF0.20277777777777778
aF0.1925925925925926
aF0.18611111111111114
aF0.17592592592592596
aF0.175
aF0.20925925925925926
aF0.18796296296296294
aF0.19907407407407407
aF0.19629629629629627
aF0.19074074074074074
aF0.1703703703703704
aF0.18425925925925926
aF0.19166666666666668
aF0.22870370370370371
aF0.18888888888888888
aF0.237037037037037
aF0.21851851851851856
aF0.2101851851851852
aF0.2277777777777778
aF0.19999999999999998
aF0.22870370370370371
aF0.22962962962962963
aF0.27777777777777773
aF0.23333333333333334
aF0.2462962962962963
aF0.24351851851851852
asI5
(lp23
F0.10648148148148148
aF0.12685185185185183
aF0.16666666666666666
aF0.137037037037037
aF0.13981481481481478
aF0.1712962962962963
aF0.16666666666666669
aF0.17592592592592596
aF0.14259259259259258
aF0.15462962962962962
aF0.1712962962962963
aF0.1564814814814815
aF0.16944444444444445
aF0.1861111111111111
aF0.1824074074074074
aF0.1712962962962963
aF0.1611111111111111
aF0.17129629629629634
aF0.18425925925925926
aF0.16944444444444445
aF0.19722222222222224
aF0.19444444444444448
aF0.18981481481481483
aF0.18796296296296294
aF0.19351851851851856
aF0.16759259259259257
aF0.19166666666666668
aF0.18611111111111114
aF0.17962962962962964
aF0.2148148148148148
aF0.25462962962962965
aF0.18333333333333332
aF0.2
aF0.22314814814814815
aF0.1925925925925926
aF0.20185185185185187
aF0.21296296296296297
aF0.27777777777777773
aF0.2398148148148148
asI7
(lp24
F0.125
aF0.13611111111111107
aF0.13333333333333333
aF0.16481481481481483
aF0.13796296296296295
aF0.1537037037037037
aF0.17314814814814813
aF0.15185185185185185
aF0.14074074074074072
aF0.13055555555555556
aF0.17962962962962964
aF0.16388888888888892
aF0.17777777777777776
aF0.16296296296296292
aF0.17685185185185187
aF0.17500000000000002
aF0.17129629629629628
aF0.18888888888888888
aF0.1925925925925926
aF0.18796296296296294
aF0.17777777777777776
aF0.16203703703703703
aF0.20555555555555557
aF0.18333333333333335
aF0.19907407407407407
aF0.17407407407407408
aF0.19074074074074074
aF0.18518518518518517
aF0.18425925925925923
aF0.19537037037037036
aF0.18703703703703703
aF0.19444444444444442
aF0.24259259259259255
aF0.20462962962962958
aF0.20277777777777778
aF0.21388888888888888
aF0.25555555555555554
aF0.27777777777777773
aF0.2398148148148148
asa(dp25
I10
(lp26
I0
aI0
aF0.27777777777777773
aF0.24351851851851852
aF0.237037037037037
aF0.1925925925925926
aF0.23333333333333334
aF0.2462962962962963
aF0.22870370370370371
aF0.19351851851851848
aF0.22962962962962963
aF0.20925925925925926
aF0.18425925925925926
aF0.17500000000000002
aF0.18888888888888888
aF0.1564814814814815
aF0.19999999999999998
aF0.22870370370370371
aF0.1564814814814815
aF0.2101851851851852
aF0.13425925925925924
aF0.19537037037037042
aF0.16944444444444445
aF0.137037037037037
aF0.175
aF0.17870370370370367
aF0.1703703703703704
aF0.1675925925925926
aF0.1564814814814815
aF0.21851851851851856
aF0.2277777777777778
aF0.20277777777777778
aF0.18888888888888886
aF0.19166666666666668
aF0.17592592592592596
aF0.19907407407407407
aF0.19629629629629627
aF0.18796296296296294
aF0.19074074074074074
aF0.19166666666666665
aF0.18611111111111114
asI5
(lp27
I0
aI0
aF0.27777777777777773
aF0.2398148148148148
aF0.25462962962962965
aF0.1712962962962963
aF0.20185185185185187
aF0.18425925925925926
aF0.22314814814814815
aF0.16666666666666669
aF0.21296296296296297
aF0.2148148148148148
aF0.18333333333333332
aF0.1611111111111111
aF0.16944444444444445
aF0.12685185185185183
aF0.16759259259259257
aF0.18611111111111114
aF0.14259259259259258
aF0.1925925925925926
aF0.10648148148148148
aF0.16944444444444445
aF0.1564814814814815
aF0.15462962962962962
aF0.137037037037037
aF0.17592592592592596
aF0.18796296296296294
aF0.13981481481481478
aF0.2
aF0.1861111111111111
aF0.17962962962962964
aF0.1824074074074074
aF0.16666666666666666
aF0.17129629629629634
aF0.1712962962962963
aF0.19351851851851856
aF0.19444444444444448
aF0.1712962962962963
aF0.18981481481481483
aF0.19722222222222224
aF0.19166666666666668
asI7
(lp28
I0
aI0
aF0.27777777777777773
aF0.2398148148148148
aF0.24259259259259255
aF0.20555555555555557
aF0.21388888888888888
aF0.18425925925925923
aF0.25555555555555554
aF0.17962962962962964
aF0.18518518518518517
aF0.18796296296296294
aF0.17407407407407408
aF0.13796296296296295
aF0.16203703703703703
aF0.1537037037037037
aF0.19444444444444442
aF0.19537037037037036
aF0.13611111111111107
aF0.20277777777777778
aF0.13055555555555556
aF0.17129629629629628
aF0.17777777777777776
aF0.125
aF0.13333333333333333
aF0.16481481481481483
aF0.16296296296296292
aF0.14074074074074072
aF0.16388888888888892
aF0.18333333333333335
aF0.18703703703703703
aF0.19907407407407407
aF0.17314814814814813
aF0.17685185185185187
aF0.17500000000000002
aF0.1925925925925926
aF0.18888888888888888
aF0.15185185185185185
aF0.20462962962962958
aF0.17777777777777776
aF0.19074074074074074
asa(dp29
I10
(lp30
I0
aI0
aF0.6880597014925371
aF0.6512437810945274
aF0.7393034825870646
aF0.7796019900497513
aF0.6865671641791045
aF0.6746268656716417
aF0.745771144278607
aF0.800497512437811
aF0.6900497512437811
aF0.7696517412935323
aF0.753233830845771
aF0.7895522388059701
aF0.7447761194029852
aF0.8338308457711443
aF0.7164179104477612
aF0.7144278606965174
aF0.8169154228855721
aF0.7238805970149254
aF0.82636815920398
aF0.7855721393034826
aF0.7990049751243781
aF0.8636815920398009
aF0.7701492537313432
aF0.8368159203980099
aF0.754726368159204
aF0.8
aF0.8174129353233832
aF0.7308457711442786
aF0.7223880597014926
aF0.7800995024875622
aF0.8124378109452737
aF0.7477611940298508
aF0.7756218905472638
aF0.7621890547263682
aF0.7601990049751244
aF0.763681592039801
aF0.7567164179104477
aF0.7935323383084576
aF0.7771144278606965
asI5
(lp31
I0
aI0
aF0.6880597014925371
aF0.6661691542288557
aF0.7472636815920397
aF0.8363184079601991
aF0.7169154228855723
aF0.7771144278606965
aF0.7223880597014924
aF0.8298507462686568
aF0.6985074626865672
aF0.7527363184079603
aF0.7437810945273632
aF0.781094527363184
aF0.7731343283582089
aF0.8711442786069652
aF0.7631840796019901
aF0.7601990049751246
aF0.8248756218905473
aF0.718905472636816
aF0.8731343283582088
aF0.7930348258706469
aF0.8044776119402985
aF0.8139303482587066
aF0.8373134328358208
aF0.8298507462686567
aF0.7666666666666666
aF0.8363184079601991
aF0.7388059701492536
aF0.790547263681592
aF0.755223880597015
aF0.7860696517412935
aF0.8393034825870647
aF0.7805970149253731
aF0.781592039800995
aF0.7641791044776121
aF0.7681592039800995
aF0.8104477611940298
aF0.7676616915422886
aF0.7711442786069651
aF0.7616915422885573
asI7
(lp32
I0
aI0
aF0.6880597014925371
aF0.6661691542288557
aF0.736318407960199
aF0.7756218905472638
aF0.7039800995024876
aF0.7552238805970148
aF0.691044776119403
aF0.8144278606965173
aF0.7582089552238808
aF0.7845771144278608
aF0.7651741293532339
aF0.8333333333333333
aF0.7771144278606965
aF0.8333333333333333
aF0.745273631840796
aF0.7517412935323384
aF0.844278606965174
aF0.7333333333333334
aF0.8154228855721393
aF0.7920398009950249
aF0.7845771144278607
aF0.8741293532338309
aF0.8417910447761194
aF0.8407960199004976
aF0.8049751243781096
aF0.8238805970149254
aF0.8139303482587066
aF0.7746268656716419
aF0.7482587064676618
aF0.7746268656716417
aF0.8308457711442786
aF0.8014925373134331
aF0.7990049751243781
aF0.7865671641791044
aF0.790547263681592
aF0.8278606965174129
aF0.7338308457711443
aF0.8109452736318408
aF0.7611940298507461
asa(dp33
I10
(lp34
I0
aI0
aF0.0
aF0.011428571428571429
aF0.07428571428571429
aF0.03285714285714286
aF0.041428571428571426
aF0.06285714285714285
aF0.07428571428571429
aF0.0842857142857143
aF0.04428571428571428
aF0.05857142857142857
aF0.03142857142857143
aF0.04285714285714286
aF0.02857142857142857
aF0.04571428571428571
aF0.04571428571428572
aF0.054285714285714284
aF0.045714285714285714
aF0.05285714285714286
aF0.04142857142857143
aF0.06142857142857143
aF0.07714285714285715
aF0.08714285714285713
aF0.05
aF0.09285714285714286
aF0.05142857142857142
aF0.06571428571428573
aF0.055714285714285716
aF0.0642857142857143
aF0.08857142857142856
aF0.08428571428571428
aF0.08714285714285713
aF0.04857142857142858
aF0.06999999999999998
aF0.06428571428571428
aF0.06857142857142856
aF0.07285714285714286
aF0.052857142857142846
aF0.06571428571428571
aF0.058571428571428566
asI5
(lp35
I0
aI0
aF0.0
aF0.005714285714285714
aF0.1
aF0.03571428571428572
aF0.008571428571428572
aF0.06142857142857142
aF0.04142857142857143
aF0.05857142857142857
aF0.02857142857142857
aF0.058571428571428566
aF0.02142857142857143
aF0.027142857142857142
aF0.03428571428571429
aF0.044285714285714296
aF0.04142857142857143
aF0.042857142857142864
aF0.04857142857142858
aF0.03
aF0.037142857142857144
aF0.04142857142857143
aF0.06
aF0.06000000000000001
aF0.04857142857142857
aF0.08285714285714287
aF0.0642857142857143
aF0.05142857142857142
aF0.0642857142857143
aF0.07571428571428572
aF0.05857142857142857
aF0.05285714285714286
aF0.08714285714285713
aF0.04
aF0.05857142857142857
aF0.07142857142857142
aF0.0657142857142857
aF0.0857142857142857
aF0.05714285714285715
aF0.05714285714285714
aF0.05
asI7
(lp36
I0
aI0
aF0.0
aF0.005714285714285714
aF0.07428571428571429
aF0.03714285714285715
aF0.004285714285714286
aF0.03142857142857143
aF0.05571428571428573
aF0.05285714285714286
aF0.03142857142857143
aF0.041428571428571426
aF0.028571428571428574
aF0.03428571428571429
aF0.027142857142857146
aF0.044285714285714296
aF0.05
aF0.05285714285714286
aF0.047142857142857146
aF0.05285714285714286
aF0.02857142857142857
aF0.027142857142857146
aF0.07142857142857142
aF0.07285714285714286
aF0.04714285714285714
aF0.08571428571428572
aF0.0657142857142857
aF0.05
aF0.058571428571428566
aF0.05285714285714286
aF0.052857142857142846
aF0.08285714285714285
aF0.08142857142857142
aF0.06
aF0.08142857142857142
aF0.0842857142857143
aF0.06714285714285714
aF0.06857142857142857
aF0.05428571428571429
aF0.06
aF0.05285714285714286
asa(dp37
I10
(lp38
I0
aI0
aF0.9906666666666666
aF0.9933333333333334
aF0.9613333333333334
aF0.9880000000000001
aF0.9773333333333334
aF0.9613333333333334
aF0.9746666666666666
aF0.9680000000000002
aF0.9680000000000002
aF0.9866666666666667
aF0.9733333333333333
aF0.9746666666666666
aF0.9826666666666668
aF0.9693333333333334
aF0.9733333333333334
aF0.9746666666666666
aF0.9746666666666666
aF0.9733333333333334
aF0.9760000000000002
aF0.968
aF0.9586666666666668
aF0.96
aF0.9826666666666666
aF0.9546666666666667
aF0.9733333333333333
aF0.9666666666666666
aF0.9720000000000001
aF0.9639999999999999
aF0.9533333333333334
aF0.9733333333333333
aF0.9666666666666668
aF0.9746666666666666
aF0.9733333333333333
aF0.9720000000000001
aF0.9613333333333334
aF0.968
aF0.9733333333333333
aF0.9546666666666667
aF0.9640000000000001
asI5
(lp39
I0
aI0
aF0.9906666666666666
aF0.9959999999999999
aF0.9400000000000001
aF0.9840000000000002
aF0.9946666666666667
aF0.9613333333333334
aF0.9813333333333333
aF0.9706666666666667
aF0.9666666666666666
aF0.9826666666666666
aF0.984
aF0.9813333333333333
aF0.9773333333333334
aF0.9693333333333332
aF0.9826666666666666
aF0.9786666666666666
aF0.9720000000000001
aF0.9813333333333334
aF0.9826666666666668
aF0.9760000000000002
aF0.9693333333333335
aF0.976
aF0.984
aF0.9559999999999998
aF0.9706666666666666
aF0.9706666666666667
aF0.9720000000000001
aF0.9653333333333333
aF0.9706666666666667
aF0.9720000000000001
aF0.9626666666666667
aF0.9786666666666667
aF0.9733333333333334
aF0.96
aF0.9586666666666666
aF0.9586666666666666
aF0.9786666666666667
aF0.9639999999999999
aF0.9640000000000001
asI7
(lp40
I0
aI0
aF0.9906666666666666
aF0.9959999999999999
aF0.9613333333333334
aF0.9893333333333334
aF0.9946666666666667
aF0.9773333333333334
aF0.9746666666666666
aF0.9746666666666668
aF0.9586666666666668
aF0.9880000000000001
aF0.9800000000000001
aF0.9746666666666666
aF0.9773333333333335
aF0.9666666666666665
aF0.9733333333333333
aF0.9733333333333333
aF0.9786666666666667
aF0.9733333333333334
aF0.9800000000000001
aF0.984
aF0.9653333333333333
aF0.9733333333333334
aF0.9853333333333332
aF0.9546666666666667
aF0.9773333333333334
aF0.9680000000000002
aF0.9693333333333334
aF0.9693333333333332
aF0.9706666666666667
aF0.9720000000000001
aF0.9706666666666667
aF0.9733333333333334
aF0.9653333333333333
aF0.9626666666666667
aF0.9640000000000001
aF0.9666666666666668
aF0.9746666666666666
aF0.9640000000000001
aF0.9640000000000001
asa(dp41
I10
(lp42
F0.006666666666666599
aF0.009333333333333416
aF0.0119999999999999
aF0.013333333333333308
aF0.0173333333333332
aF0.017333333333333423
aF0.022666666666666613
aF0.0239999999999998
aF0.02533333333333343
aF0.02533333333333343
aF0.02533333333333343
aF0.02533333333333343
aF0.02533333333333343
aF0.026666666666666616
aF0.026666666666666616
aF0.026666666666666727
aF0.026666666666666727
aF0.026666666666666727
aF0.026666666666666727
aF0.026666666666666727
aF0.027999999999999914
aF0.027999999999999914
aF0.03066666666666662
aF0.031999999999999806
aF0.031999999999999806
aF0.03200000000000003
aF0.03200000000000003
aF0.033333333333333215
aF0.03333333333333344
aF0.03599999999999992
aF0.03600000000000014
aF0.03866666666666663
aF0.03866666666666663
aF0.03866666666666663
aF0.040000000000000036
aF0.04133333333333322
aF0.04533333333333334
aF0.04533333333333334
aF0.046666666666666634
asI5
(lp43
F0.004000000000000115
aF0.005333333333333301
aF0.009333333333333416
aF0.015999999999999792
aF0.016000000000000014
aF0.016000000000000014
aF0.0173333333333332
aF0.017333333333333423
aF0.017333333333333423
aF0.01866666666666661
aF0.01866666666666672
aF0.01866666666666672
aF0.021333333333333315
aF0.021333333333333315
aF0.021333333333333426
aF0.022666666666666613
aF0.0239999999999998
aF0.02400000000000002
aF0.026666666666666616
aF0.027999999999999914
aF0.027999999999999914
aF0.027999999999999914
aF0.029333333333333322
aF0.029333333333333322
aF0.029333333333333322
aF0.029333333333333433
aF0.03066666666666651
aF0.030666666666666842
aF0.03333333333333344
aF0.034666666666666734
aF0.03599999999999992
aF0.03600000000000014
aF0.03733333333333333
aF0.03866666666666663
aF0.040000000000000036
aF0.041333333333333444
aF0.041333333333333444
aF0.04400000000000015
aF0.05999999999999994
asI7
(lp44
F0.004000000000000115
aF0.005333333333333301
aF0.009333333333333416
aF0.010666666666666602
aF0.0119999999999999
aF0.014666666666666828
aF0.016000000000000014
aF0.019999999999999907
aF0.019999999999999907
aF0.021333333333333315
aF0.022666666666666502
aF0.022666666666666613
aF0.022666666666666613
aF0.025333333333333208
aF0.02533333333333343
aF0.02533333333333343
aF0.02533333333333343
aF0.026666666666666616
aF0.026666666666666616
aF0.026666666666666616
aF0.026666666666666727
aF0.026666666666666727
aF0.027999999999999914
aF0.029333333333333322
aF0.029333333333333322
aF0.03066666666666662
aF0.030666666666666842
aF0.031999999999999806
aF0.033333333333333215
aF0.03333333333333355
aF0.034666666666666734
aF0.034666666666666734
aF0.03599999999999992
aF0.03599999999999992
aF0.03599999999999992
aF0.03733333333333333
aF0.03866666666666663
aF0.04133333333333322
aF0.04533333333333334
asa(dp45
I10
(lp46
F0.011428571428571429
aF0.0
aF0.03285714285714286
aF0.05857142857142857
aF0.02857142857142857
aF0.05
aF0.041428571428571426
aF0.04142857142857143
aF0.04285714285714286
aF0.045714285714285714
aF0.04857142857142858
aF0.054285714285714284
aF0.07428571428571429
aF0.04571428571428572
aF0.05285714285714286
aF0.03142857142857143
aF0.05142857142857142
aF0.052857142857142846
aF0.06999999999999998
aF0.08428571428571428
aF0.055714285714285716
aF0.06428571428571428
aF0.04571428571428571
aF0.04428571428571428
aF0.0842857142857143
aF0.06142857142857143
aF0.07285714285714286
aF0.08714285714285713
aF0.06571428571428573
aF0.058571428571428566
aF0.0642857142857143
aF0.06285714285714285
aF0.06857142857142856
aF0.07428571428571429
aF0.08714285714285713
aF0.07714285714285715
aF0.06571428571428571
aF0.09285714285714286
aF0.08857142857142856
asI5
(lp47
F0.005714285714285714
aF0.008571428571428572
aF0.0
aF0.03571428571428572
aF0.02142857142857143
aF0.04857142857142857
aF0.037142857142857144
aF0.04142857142857143
aF0.058571428571428566
aF0.03
aF0.027142857142857142
aF0.04142857142857143
aF0.04
aF0.05714285714285715
aF0.042857142857142864
aF0.03428571428571429
aF0.04142857142857143
aF0.06000000000000001
aF0.05857142857142857
aF0.04857142857142858
aF0.05285714285714286
aF0.0642857142857143
aF0.05142857142857142
aF0.05857142857142857
aF0.05857142857142857
aF0.0642857142857143
aF0.06
aF0.044285714285714296
aF0.02857142857142857
aF0.07571428571428572
aF0.05
aF0.05714285714285714
aF0.08714285714285713
aF0.06142857142857142
aF0.07142857142857142
aF0.0657142857142857
aF0.0857142857142857
aF0.08285714285714287
aF0.1
asI7
(lp48
F0.005714285714285714
aF0.004285714285714286
aF0.0
aF0.03714285714285715
aF0.041428571428571426
aF0.04714285714285714
aF0.027142857142857146
aF0.02857142857142857
aF0.028571428571428574
aF0.047142857142857146
aF0.027142857142857146
aF0.03142857142857143
aF0.0657142857142857
aF0.05285714285714286
aF0.03428571428571429
aF0.05428571428571429
aF0.05571428571428573
aF0.05285714285714286
aF0.06
aF0.07285714285714286
aF0.05
aF0.05285714285714286
aF0.08285714285714285
aF0.052857142857142846
aF0.08142857142857142
aF0.058571428571428566
aF0.05285714285714286
aF0.05
aF0.06857142857142857
aF0.044285714285714296
aF0.07142857142857142
aF0.08142857142857142
aF0.05285714285714286
aF0.06
aF0.06714285714285714
aF0.0842857142857143
aF0.07428571428571429
aF0.03142857142857143
aF0.08571428571428572
asaI1
a(lp49
I5
aI7
aI10
aa.