(lp0
S'noCV'
p1
acnumpy.core.multiarray
_reconstruct
p2
(cnumpy
ndarray
p3
(I0
tp4
S'b'
p5
tp6
Rp7
(I1
(I39
tp8
cnumpy
dtype
p9
(S'i8'
p10
I0
I1
tp11
Rp12
(I3
S'<'
p13
NNNI-1
I-1
I0
tp14
bI00
S'\x02\x00\x00\x00\x00\x00\x00\x00\x03\x00\x00\x00\x00\x00\x00\x00\x04\x00\x00\x00\x00\x00\x00\x00\x05\x00\x00\x00\x00\x00\x00\x00\x06\x00\x00\x00\x00\x00\x00\x00\x07\x00\x00\x00\x00\x00\x00\x00\x08\x00\x00\x00\x00\x00\x00\x00\t\x00\x00\x00\x00\x00\x00\x00\n\x00\x00\x00\x00\x00\x00\x00\x0b\x00\x00\x00\x00\x00\x00\x00\x0c\x00\x00\x00\x00\x00\x00\x00\r\x00\x00\x00\x00\x00\x00\x00\x0e\x00\x00\x00\x00\x00\x00\x00\x0f\x00\x00\x00\x00\x00\x00\x00\x10\x00\x00\x00\x00\x00\x00\x00\x11\x00\x00\x00\x00\x00\x00\x00\x12\x00\x00\x00\x00\x00\x00\x00\x13\x00\x00\x00\x00\x00\x00\x00\x14\x00\x00\x00\x00\x00\x00\x00\x15\x00\x00\x00\x00\x00\x00\x00\x16\x00\x00\x00\x00\x00\x00\x00\x17\x00\x00\x00\x00\x00\x00\x00\x18\x00\x00\x00\x00\x00\x00\x00\x19\x00\x00\x00\x00\x00\x00\x00\x1a\x00\x00\x00\x00\x00\x00\x00\x1b\x00\x00\x00\x00\x00\x00\x00\x1c\x00\x00\x00\x00\x00\x00\x00\x1d\x00\x00\x00\x00\x00\x00\x00\x1e\x00\x00\x00\x00\x00\x00\x00\x1f\x00\x00\x00\x00\x00\x00\x00 \x00\x00\x00\x00\x00\x00\x00!\x00\x00\x00\x00\x00\x00\x00"\x00\x00\x00\x00\x00\x00\x00#\x00\x00\x00\x00\x00\x00\x00$\x00\x00\x00\x00\x00\x00\x00%\x00\x00\x00\x00\x00\x00\x00&\x00\x00\x00\x00\x00\x00\x00\'\x00\x00\x00\x00\x00\x00\x00(\x00\x00\x00\x00\x00\x00\x00'
p15
tp16
baI10
a(dp17
I10
(lp18
F0.34029850746268653
aF0.354726368159204
aF0.36766169154228856
aF0.37014925373134333
aF0.37014925373134333
aF0.3716417910447761
aF0.3716417910447761
aF0.37761194029850753
aF0.3791044776119403
aF0.37960199004975126
aF0.38258706467661696
aF0.3875621890547264
aF0.3905472636815921
aF0.39154228855721396
aF0.3920398009950249
aF0.39303482587064675
aF0.39552238805970164
aF0.3965174129353235
aF0.39900497512437805
aF0.4029850746268657
aF0.4069651741293532
aF0.4104477611940299
aF0.4114427860696519
aF0.418905472636816
aF0.42736318407960205
aF0.43333333333333335
aF0.43781094527363185
aF0.4398009950248757
aF0.4442786069651742
aF0.445771144278607
aF0.4532338308457712
aF0.4716417910447761
aF0.4726368159203981
aF0.4761194029850747
aF0.47810945273631833
aF0.5094527363184078
aF0.5373134328358208
aF0.5572139303482587
aF0.5721393034825871
asI5
(lp19
F0.3621890547263681
aF0.3621890547263681
aF0.37313432835820903
aF0.37661691542288556
aF0.38258706467661696
aF0.3830845771144278
aF0.38507462686567173
aF0.3880597014925373
aF0.3890547263681592
aF0.39004975124378116
aF0.39104477611940314
aF0.39303482587064675
aF0.39303482587064686
aF0.3955223880597015
aF0.3965174129353233
aF0.3980099502487562
aF0.39900497512437805
aF0.40049751243781095
aF0.40796019900497515
aF0.408955223880597
aF0.4338308457711444
aF0.4417910447761194
aF0.44378109452736325
aF0.44527363184079616
aF0.4517412935323384
aF0.45273631840796025
aF0.45721393034825863
aF0.46467661691542284
aF0.46766169154228854
aF0.47363184079601983
aF0.47512437810945274
aF0.47661691542288553
aF0.48109452736318414
aF0.49303482587064684
aF0.5119402985074626
aF0.5154228855721393
aF0.5323383084577115
aF0.5572139303482587
aF0.5721393034825871
asI7
(lp20
F0.3522388059701492
aF0.3636815920398009
aF0.36467661691542286
aF0.3651741293532338
aF0.3711442786069652
aF0.37363184079601985
aF0.37363184079601985
aF0.3756218905472637
aF0.3771144278606965
aF0.3800995024875621
aF0.3830845771144278
aF0.3830845771144279
aF0.3845771144278606
aF0.38855721393034837
aF0.39303482587064675
aF0.3955223880597014
aF0.39751243781094536
aF0.39751243781094536
aF0.3980099502487562
aF0.3985074626865671
aF0.4069651741293532
aF0.4179104477611941
aF0.41840796019900495
aF0.4223880597014925
aF0.43681592039801
aF0.4383084577114429
aF0.4472636815920399
aF0.4517412935323384
aF0.4577114427860697
aF0.45870646766169165
aF0.45920398009950236
aF0.4592039800995025
aF0.4636815920398011
aF0.4656716417910447
aF0.4711442786069652
aF0.47363184079601983
aF0.5079601990049751
aF0.5572139303482587
aF0.5721393034825871
asa(dp21
I10
(lp22
F0.6444444444444445
aF0.638888888888889
aF0.6527777777777778
aF0.6601851851851852
aF0.675
aF0.6675925925925926
aF0.6759259259259258
aF0.687037037037037
aF0.6796296296296296
aF0.6768518518518518
aF0.6518518518518518
aF0.6925925925925926
aF0.6712962962962963
aF0.6990740740740741
aF0.6666666666666666
aF0.6203703703703703
aF0.7046296296296297
aF0.6824074074074075
aF0.6824074074074075
aF0.6759259259259258
aF0.7074074074074074
aF0.6907407407407408
aF0.6898148148148147
aF0.7046296296296297
aF0.687962962962963
aF0.6925925925925925
aF0.6953703703703704
aF0.6851851851851851
aF0.7185185185185184
aF0.711111111111111
aF0.7472222222222221
aF0.7638888888888887
aF0.7101851851851853
aF0.7370370370370372
aF0.7083333333333334
aF0.7657407407407407
aF0.7592592592592594
aF0.6851851851851852
aF0.7962962962962962
asI5
(lp23
F0.6342592592592593
aF0.6472222222222223
aF0.6722222222222223
aF0.6722222222222223
aF0.662037037037037
aF0.675
aF0.6805555555555556
aF0.662037037037037
aF0.6925925925925925
aF0.6759259259259259
aF0.6824074074074075
aF0.6203703703703703
aF0.6592592592592592
aF0.6648148148148147
aF0.6611111111111111
aF0.6888888888888889
aF0.6824074074074074
aF0.7009259259259258
aF0.7037037037037038
aF0.6925925925925926
aF0.7083333333333333
aF0.7148148148148149
aF0.6990740740740742
aF0.6898148148148148
aF0.7194444444444443
aF0.7277777777777777
aF0.6925925925925926
aF0.6925925925925926
aF0.7351851851851852
aF0.7592592592592594
aF0.7092592592592593
aF0.7712962962962964
aF0.6990740740740741
aF0.7157407407407408
aF0.7777777777777778
aF0.7305555555555554
aF0.75
aF0.6851851851851852
aF0.7685185185185184
asI7
(lp24
F0.649074074074074
aF0.6564814814814814
aF0.6740740740740739
aF0.6453703703703704
aF0.6629629629629629
aF0.65
aF0.6666666666666667
aF0.6712962962962963
aF0.6851851851851851
aF0.6833333333333333
aF0.6601851851851852
aF0.6703703703703704
aF0.6722222222222223
aF0.6944444444444443
aF0.6203703703703703
aF0.6796296296296297
aF0.687962962962963
aF0.7138888888888888
aF0.75
aF0.6796296296296297
aF0.700925925925926
aF0.6944444444444445
aF0.6833333333333333
aF0.6925925925925926
aF0.7092592592592591
aF0.6935185185185185
aF0.6972222222222222
aF0.7037037037037037
aF0.700925925925926
aF0.7194444444444444
aF0.7083333333333333
aF0.7277777777777777
aF0.7555555555555555
aF0.7
aF0.7166666666666667
aF0.7425925925925925
aF0.7694444444444444
aF0.6851851851851852
aF0.7685185185185184
asa(dp25
I10
(lp26
I0
aI0
aF0.6203703703703703
aF0.6851851851851852
aF0.6759259259259258
aF0.7592592592592594
aF0.7962962962962962
aF0.7638888888888887
aF0.7657407407407407
aF0.7472222222222221
aF0.7370370370370372
aF0.6851851851851851
aF0.7074074074074074
aF0.7046296296296297
aF0.7083333333333334
aF0.711111111111111
aF0.6953703703703704
aF0.6824074074074075
aF0.687962962962963
aF0.7046296296296297
aF0.7101851851851853
aF0.6925925925925925
aF0.7185185185185184
aF0.6990740740740741
aF0.6925925925925926
aF0.6898148148148147
aF0.6712962962962963
aF0.6759259259259258
aF0.6907407407407408
aF0.6796296296296296
aF0.675
aF0.6444444444444445
aF0.6768518518518518
aF0.6527777777777778
aF0.687037037037037
aF0.6824074074074075
aF0.638888888888889
aF0.6518518518518518
aF0.6666666666666666
aF0.6675925925925926
aF0.6601851851851852
asI5
(lp27
I0
aI0
aF0.6203703703703703
aF0.6851851851851852
aF0.7037037037037038
aF0.75
aF0.7685185185185184
aF0.7592592592592594
aF0.7777777777777778
aF0.7712962962962964
aF0.7351851851851852
aF0.6925925925925926
aF0.7148148148148149
aF0.7092592592592593
aF0.6990740740740741
aF0.7277777777777777
aF0.7157407407407408
aF0.6990740740740742
aF0.6925925925925926
aF0.7083333333333333
aF0.7305555555555554
aF0.6898148148148148
aF0.7194444444444443
aF0.6925925925925926
aF0.7009259259259258
aF0.6925925925925925
aF0.6592592592592592
aF0.6722222222222223
aF0.6824074074074075
aF0.6824074074074074
aF0.6722222222222223
aF0.6342592592592593
aF0.6805555555555556
aF0.662037037037037
aF0.6759259259259259
aF0.6648148148148147
aF0.6472222222222223
aF0.6611111111111111
aF0.662037037037037
aF0.675
aF0.6888888888888889
asI7
(lp28
I0
aI0
aF0.6203703703703703
aF0.6851851851851852
aF0.6944444444444445
aF0.75
aF0.7685185185185184
aF0.7425925925925925
aF0.7694444444444444
aF0.7555555555555555
aF0.7277777777777777
aF0.6972222222222222
aF0.6833333333333333
aF0.6935185185185185
aF0.7
aF0.7194444444444444
aF0.7083333333333333
aF0.6796296296296297
aF0.700925925925926
aF0.6944444444444443
aF0.7166666666666667
aF0.7037037037037037
aF0.7092592592592591
aF0.7138888888888888
aF0.700925925925926
aF0.6925925925925926
aF0.6796296296296297
aF0.6629629629629629
aF0.687962962962963
aF0.6740740740740739
aF0.6833333333333333
aF0.649074074074074
aF0.6712962962962963
aF0.6453703703703704
aF0.6851851851851851
aF0.6722222222222223
aF0.6564814814814814
aF0.65
aF0.6601851851851852
aF0.6703703703703704
aF0.6666666666666667
asa(dp29
I10
(lp30
I0
aI0
aF0.6069651741293532
aF0.4427860696517413
aF0.5970149253731343
aF0.4626865671641792
aF0.4278606965174129
aF0.5283582089552239
aF0.4905472636815921
aF0.5467661691542288
aF0.5238805970149253
aF0.5601990049751243
aF0.5930348258706468
aF0.581094527363184
aF0.5218905472636817
aF0.554228855721393
aF0.5621890547263682
aF0.6034825870646765
aF0.572636815920398
aF0.6044776119402984
aF0.5273631840796019
aF0.5666666666666667
aF0.5557213930348258
aF0.608457711442786
aF0.6124378109452736
aF0.5885572139303481
aF0.6094527363184079
aF0.6283582089552239
aF0.5895522388059701
aF0.6208955223880597
aF0.6298507462686567
aF0.6597014925373135
aF0.6203980099502487
aF0.6323383084577114
aF0.6223880597014925
aF0.600995024875622
aF0.645273631840796
aF0.617412935323383
aF0.6079601990049751
aF0.6283582089552239
aF0.6298507462686567
asI5
(lp31
I0
aI0
aF0.6069651741293532
aF0.4427860696517413
aF0.5920398009950248
aF0.46766169154228854
aF0.4278606965174129
aF0.5263681592039802
aF0.48805970149253736
aF0.5233830845771145
aF0.5323383084577115
aF0.5353233830845772
aF0.5582089552238806
aF0.5248756218905473
aF0.5189054726368159
aF0.5472636815920398
aF0.5069651741293532
aF0.5562189054726367
aF0.5427860696517414
aF0.5661691542288556
aF0.48457711442786067
aF0.5547263681592038
aF0.5482587064676616
aF0.591044776119403
aF0.599502487562189
aF0.6109452736318408
aF0.6069651741293531
aF0.6233830845771144
aF0.6089552238805969
aF0.600995024875622
aF0.626865671641791
aF0.6378109452736319
aF0.6149253731343283
aF0.617412935323383
aF0.6099502487562188
aF0.6044776119402985
aF0.6378109452736319
aF0.6034825870646767
aF0.6119402985074627
aF0.6169154228855722
aF0.6019900497512438
asI7
(lp32
I0
aI0
aF0.6069651741293532
aF0.4427860696517413
aF0.5820895522388059
aF0.6019900497512438
aF0.4278606965174129
aF0.5263681592039802
aF0.4920398009950248
aF0.5363184079601989
aF0.5407960199004975
aF0.5527363184079601
aF0.581592039800995
aF0.5616915422885571
aF0.5343283582089553
aF0.5412935323383083
aF0.5407960199004976
aF0.6044776119402986
aF0.5422885572139303
aF0.6114427860696516
aF0.5288557213930348
aF0.5482587064676616
aF0.56318407960199
aF0.6024875621890546
aF0.5930348258706468
aF0.5776119402985075
aF0.6014925373134329
aF0.6288557213930348
aF0.6024875621890546
aF0.6353233830845771
aF0.6199004975124379
aF0.6477611940298508
aF0.6243781094527363
aF0.6348258706467662
aF0.6228855721393035
aF0.6154228855721394
aF0.6363184079601991
aF0.6263681592039801
aF0.6169154228855722
aF0.6169154228855721
aF0.6263681592039801
asa(dp33
I10
(lp34
I0
aI0
aF0.5285714285714286
aF0.5857142857142856
aF0.6142857142857142
aF0.7285714285714285
aF0.7000000000000001
aF0.6900000000000002
aF0.7071428571428572
aF0.7428571428571429
aF0.7142857142857144
aF0.6657142857142857
aF0.6942857142857143
aF0.67
aF0.6642857142857143
aF0.6828571428571429
aF0.6685714285714286
aF0.6657142857142857
aF0.6514285714285715
aF0.6814285714285715
aF0.6714285714285715
aF0.6714285714285715
aF0.69
aF0.6885714285714285
aF0.6857142857142858
aF0.6671428571428571
aF0.6571428571428573
aF0.6757142857142858
aF0.6628571428571429
aF0.6714285714285715
aF0.6742857142857144
aF0.6457142857142857
aF0.6828571428571429
aF0.6471428571428571
aF0.6814285714285714
aF0.6771428571428573
aF0.6285714285714287
aF0.6414285714285713
aF0.6571428571428571
aF0.6485714285714286
aF0.66
asI5
(lp35
I0
aI0
aF0.5285714285714286
aF0.5857142857142856
aF0.6571428571428573
aF0.7142857142857143
aF0.6571428571428573
aF0.6785714285714286
aF0.7271428571428572
aF0.74
aF0.7200000000000001
aF0.6557142857142857
aF0.6900000000000001
aF0.6599999999999999
aF0.6542857142857142
aF0.6985714285714286
aF0.6728571428571429
aF0.6699999999999999
aF0.6442857142857144
aF0.662857142857143
aF0.6785714285714286
aF0.6714285714285715
aF0.6928571428571428
aF0.6799999999999999
aF0.6785714285714286
aF0.6842857142857144
aF0.64
aF0.6657142857142857
aF0.6571428571428571
aF0.6671428571428571
aF0.6700000000000002
aF0.627142857142857
aF0.6799999999999999
aF0.6614285714285714
aF0.6671428571428573
aF0.6557142857142857
aF0.6285714285714287
aF0.6485714285714287
aF0.6471428571428571
aF0.6542857142857142
aF0.6842857142857143
asI7
(lp36
I0
aI0
aF0.5285714285714286
aF0.5857142857142856
aF0.642857142857143
aF0.7428571428571429
aF0.6571428571428573
aF0.6528571428571429
aF0.7171428571428573
aF0.7414285714285714
aF0.7114285714285715
aF0.6742857142857143
aF0.6557142857142857
aF0.6557142857142857
aF0.6571428571428573
aF0.6842857142857144
aF0.6799999999999999
aF0.6599999999999999
aF0.6599999999999999
aF0.6757142857142858
aF0.6671428571428573
aF0.6771428571428572
aF0.6857142857142857
aF0.7085714285714286
aF0.6828571428571429
aF0.6757142857142857
aF0.6642857142857144
aF0.6585714285714286
aF0.6685714285714286
aF0.6628571428571429
aF0.6771428571428573
aF0.6399999999999999
aF0.6800000000000002
aF0.6399999999999999
aF0.6699999999999999
aF0.6700000000000002
aF0.6385714285714287
aF0.6471428571428572
aF0.6614285714285715
aF0.6457142857142857
aF0.6685714285714286
asa(dp37
I10
(lp38
I0
aI0
aF0.7466666666666668
aF0.8266666666666664
aF0.7066666666666668
aF0.6799999999999999
aF0.7466666666666668
aF0.764
aF0.6666666666666667
aF0.6666666666666667
aF0.6839999999999999
aF0.6946666666666667
aF0.6653333333333332
aF0.6973333333333334
aF0.6786666666666666
aF0.7066666666666667
aF0.6986666666666667
aF0.7
aF0.7226666666666668
aF0.724
aF0.7106666666666666
aF0.716
aF0.7026666666666667
aF0.712
aF0.7066666666666668
aF0.716
aF0.7013333333333334
aF0.7226666666666667
aF0.6973333333333334
aF0.7226666666666668
aF0.7133333333333333
aF0.732
aF0.6893333333333334
aF0.7240000000000001
aF0.7080000000000001
aF0.692
aF0.736
aF0.7186666666666667
aF0.7066666666666667
aF0.7186666666666667
aF0.7146666666666667
asI5
(lp39
I0
aI0
aF0.7466666666666668
aF0.8266666666666664
aF0.6933333333333334
aF0.6933333333333334
aF0.7466666666666668
aF0.7693333333333333
aF0.6493333333333333
aF0.6639999999999999
aF0.6773333333333333
aF0.6973333333333334
aF0.6599999999999999
aF0.6799999999999999
aF0.6866666666666666
aF0.6866666666666668
aF0.6826666666666666
aF0.684
aF0.708
aF0.7213333333333334
aF0.6866666666666666
aF0.7053333333333333
aF0.6973333333333334
aF0.7093333333333334
aF0.6946666666666667
aF0.7026666666666668
aF0.7160000000000001
aF0.716
aF0.716
aF0.724
aF0.7093333333333333
aF0.7226666666666668
aF0.7000000000000001
aF0.7173333333333333
aF0.704
aF0.6906666666666667
aF0.728
aF0.6933333333333332
aF0.704
aF0.7120000000000001
aF0.6920000000000001
asI7
(lp40
I0
aI0
aF0.7466666666666668
aF0.8266666666666664
aF0.6666666666666667
aF0.6799999999999999
aF0.7466666666666668
aF0.7693333333333333
aF0.66
aF0.6653333333333334
aF0.6786666666666668
aF0.708
aF0.7106666666666667
aF0.7026666666666668
aF0.6813333333333336
aF0.7066666666666666
aF0.6946666666666667
aF0.716
aF0.7146666666666668
aF0.7426666666666667
aF0.7146666666666667
aF0.72
aF0.7120000000000001
aF0.708
aF0.704
aF0.7133333333333333
aF0.7053333333333335
aF0.72
aF0.7106666666666667
aF0.7333333333333333
aF0.704
aF0.7253333333333334
aF0.6893333333333332
aF0.7346666666666668
aF0.7120000000000001
aF0.6986666666666667
aF0.7373333333333333
aF0.7173333333333334
aF0.7173333333333333
aF0.7093333333333331
aF0.7106666666666666
asa(dp41
I10
(lp42
F0.17333333333333356
aF0.236
aF0.2533333333333332
aF0.2533333333333332
aF0.264
aF0.268
aF0.2759999999999999
aF0.276
aF0.2773333333333332
aF0.2773333333333332
aF0.2773333333333333
aF0.2813333333333333
aF0.2813333333333333
aF0.28400000000000003
aF0.28400000000000003
aF0.2853333333333333
aF0.28666666666666674
aF0.28800000000000003
aF0.28933333333333344
aF0.2919999999999999
aF0.2933333333333332
aF0.2933333333333332
aF0.29333333333333333
aF0.29333333333333333
aF0.29733333333333334
aF0.29866666666666664
aF0.30000000000000004
aF0.30133333333333334
aF0.30266666666666664
aF0.30266666666666664
aF0.30533333333333335
aF0.30800000000000005
aF0.31066666666666665
aF0.31600000000000006
aF0.32000000000000006
aF0.32133333333333336
aF0.33333333333333326
aF0.33333333333333326
aF0.3346666666666668
asI5
(lp43
F0.17333333333333356
aF0.2306666666666667
aF0.2533333333333332
aF0.2533333333333332
aF0.272
aF0.276
aF0.2773333333333332
aF0.2786666666666666
aF0.28266666666666673
aF0.2839999999999999
aF0.28400000000000003
aF0.28400000000000003
aF0.2879999999999999
aF0.29066666666666663
aF0.29066666666666674
aF0.29200000000000004
aF0.29466666666666674
aF0.29600000000000004
aF0.29600000000000004
aF0.2973333333333332
aF0.29999999999999993
aF0.30266666666666664
aF0.30266666666666664
aF0.30533333333333335
aF0.30666666666666664
aF0.30666666666666664
aF0.30666666666666675
aF0.30799999999999994
aF0.30933333333333335
aF0.31333333333333324
aF0.31333333333333335
aF0.31333333333333335
aF0.31599999999999995
aF0.31733333333333336
aF0.32000000000000006
aF0.32266666666666666
aF0.3360000000000001
aF0.3400000000000001
aF0.3506666666666667
asI7
(lp44
F0.17333333333333356
aF0.2306666666666667
aF0.2533333333333332
aF0.2533333333333332
aF0.2573333333333333
aF0.2626666666666667
aF0.2653333333333332
aF0.2666666666666667
aF0.2746666666666666
aF0.28
aF0.28
aF0.2826666666666666
aF0.28266666666666673
aF0.28400000000000003
aF0.2853333333333332
aF0.2853333333333333
aF0.28666666666666674
aF0.2879999999999999
aF0.2879999999999999
aF0.28933333333333333
aF0.28933333333333333
aF0.28933333333333344
aF0.29066666666666685
aF0.29200000000000004
aF0.29200000000000004
aF0.29333333333333345
aF0.2946666666666665
aF0.29600000000000004
aF0.29600000000000004
aF0.2973333333333332
aF0.30133333333333334
aF0.30533333333333335
aF0.31066666666666676
aF0.31866666666666643
aF0.32000000000000006
aF0.32133333333333325
aF0.33333333333333326
aF0.33466666666666656
aF0.33999999999999997
asa(dp45
I10
(lp46
F0.5857142857142856
aF0.6900000000000002
aF0.5285714285714286
aF0.7000000000000001
aF0.6285714285714287
aF0.6457142857142857
aF0.6471428571428571
aF0.6814285714285715
aF0.6514285714285715
aF0.6714285714285715
aF0.6757142857142858
aF0.6414285714285713
aF0.6485714285714286
aF0.6671428571428571
aF0.6714285714285715
aF0.66
aF0.6742857142857144
aF0.6885714285714285
aF0.6714285714285715
aF0.6814285714285714
aF0.6142857142857142
aF0.6857142857142858
aF0.6571428571428571
aF0.6828571428571429
aF0.69
aF0.6571428571428573
aF0.6657142857142857
aF0.6685714285714286
aF0.6628571428571429
aF0.67
aF0.6657142857142857
aF0.6771428571428573
aF0.6828571428571429
aF0.7142857142857144
aF0.7285714285714285
aF0.6642857142857143
aF0.7071428571428572
aF0.7428571428571429
aF0.6942857142857143
asI5
(lp47
F0.5857142857142856
aF0.6785714285714286
aF0.5285714285714286
aF0.6571428571428573
aF0.6285714285714287
aF0.6671428571428571
aF0.627142857142857
aF0.662857142857143
aF0.6614285714285714
aF0.64
aF0.6571428571428571
aF0.6657142857142857
aF0.6542857142857142
aF0.6799999999999999
aF0.6700000000000002
aF0.6442857142857144
aF0.6714285714285715
aF0.6471428571428571
aF0.6671428571428573
aF0.6842857142857144
aF0.6799999999999999
aF0.6557142857142857
aF0.6928571428571428
aF0.6785714285714286
aF0.6571428571428573
aF0.7142857142857143
aF0.6485714285714287
aF0.6842857142857143
aF0.6557142857142857
aF0.6985714285714286
aF0.6542857142857142
aF0.6785714285714286
aF0.6699999999999999
aF0.6728571428571429
aF0.6599999999999999
aF0.7200000000000001
aF0.74
aF0.6900000000000001
aF0.7271428571428572
asI7
(lp48
F0.5857142857142856
aF0.6528571428571429
aF0.5285714285714286
aF0.6571428571428573
aF0.6757142857142858
aF0.6385714285714287
aF0.6399999999999999
aF0.6628571428571429
aF0.6399999999999999
aF0.6585714285714286
aF0.6771428571428572
aF0.6471428571428572
aF0.6614285714285715
aF0.6599999999999999
aF0.6599999999999999
aF0.6671428571428573
aF0.6757142857142857
aF0.6699999999999999
aF0.6857142857142857
aF0.6557142857142857
aF0.6685714285714286
aF0.6685714285714286
aF0.6457142857142857
aF0.6742857142857143
aF0.7085714285714286
aF0.6842857142857144
aF0.6642857142857144
aF0.6771428571428573
aF0.6828571428571429
aF0.6557142857142857
aF0.6700000000000002
aF0.6799999999999999
aF0.6800000000000002
aF0.6571428571428573
aF0.7428571428571429
aF0.7114285714285715
aF0.642857142857143
aF0.7414285714285714
aF0.7171428571428573
asaI1
a(lp49
I5
aI7
aI10
aa.