(lp0
S'CF'
p1
acnumpy.core.multiarray
_reconstruct
p2
(cnumpy
ndarray
p3
(I0
tp4
S'b'
p5
tp6
Rp7
(I1
(I39
tp8
cnumpy
dtype
p9
(S'i8'
p10
I0
I1
tp11
Rp12
(I3
S'<'
p13
NNNI-1
I-1
I0
tp14
bI00
S'\x02\x00\x00\x00\x00\x00\x00\x00\x03\x00\x00\x00\x00\x00\x00\x00\x04\x00\x00\x00\x00\x00\x00\x00\x05\x00\x00\x00\x00\x00\x00\x00\x06\x00\x00\x00\x00\x00\x00\x00\x07\x00\x00\x00\x00\x00\x00\x00\x08\x00\x00\x00\x00\x00\x00\x00\t\x00\x00\x00\x00\x00\x00\x00\n\x00\x00\x00\x00\x00\x00\x00\x0b\x00\x00\x00\x00\x00\x00\x00\x0c\x00\x00\x00\x00\x00\x00\x00\r\x00\x00\x00\x00\x00\x00\x00\x0e\x00\x00\x00\x00\x00\x00\x00\x0f\x00\x00\x00\x00\x00\x00\x00\x10\x00\x00\x00\x00\x00\x00\x00\x11\x00\x00\x00\x00\x00\x00\x00\x12\x00\x00\x00\x00\x00\x00\x00\x13\x00\x00\x00\x00\x00\x00\x00\x14\x00\x00\x00\x00\x00\x00\x00\x15\x00\x00\x00\x00\x00\x00\x00\x16\x00\x00\x00\x00\x00\x00\x00\x17\x00\x00\x00\x00\x00\x00\x00\x18\x00\x00\x00\x00\x00\x00\x00\x19\x00\x00\x00\x00\x00\x00\x00\x1a\x00\x00\x00\x00\x00\x00\x00\x1b\x00\x00\x00\x00\x00\x00\x00\x1c\x00\x00\x00\x00\x00\x00\x00\x1d\x00\x00\x00\x00\x00\x00\x00\x1e\x00\x00\x00\x00\x00\x00\x00\x1f\x00\x00\x00\x00\x00\x00\x00 \x00\x00\x00\x00\x00\x00\x00!\x00\x00\x00\x00\x00\x00\x00"\x00\x00\x00\x00\x00\x00\x00#\x00\x00\x00\x00\x00\x00\x00$\x00\x00\x00\x00\x00\x00\x00%\x00\x00\x00\x00\x00\x00\x00&\x00\x00\x00\x00\x00\x00\x00\'\x00\x00\x00\x00\x00\x00\x00(\x00\x00\x00\x00\x00\x00\x00'
p15
tp16
baI10
a(dp17
cnumpy.core.multiarray
scalar
p18
(g12
S'\x00\x00\x00\x00\x00\x00\x00\x00'
p19
tp20
Rp21
(lp22
F0.3910447761194029
aF0.3940298507462686
aF0.4029850746268657
aF0.4074626865671642
aF0.4179104477611941
aF0.4194029850746268
aF0.4194029850746268
aF0.4194029850746269
aF0.4208955223880596
aF0.4208955223880596
aF0.4253731343283583
aF0.4283582089552238
aF0.4298507462686567
aF0.4328358208955223
aF0.4328358208955223
aF0.4328358208955223
aF0.4328358208955224
aF0.4358208955223881
aF0.4358208955223881
aF0.4373134328358208
aF0.4388059701492538
aF0.4402985074626866
aF0.4432835820895522
aF0.4432835820895523
aF0.4432835820895523
aF0.4447761194029851
aF0.4462686567164179
aF0.4462686567164179
aF0.4462686567164179
aF0.4462686567164179
aF0.4477611940298506
aF0.4477611940298507
aF0.4477611940298508
aF0.4477611940298508
aF0.4477611940298508
aF0.4477611940298508
aF0.4537313432835821
aF0.4567164179104478
aF0.4686567164179105
asg18
(g12
S'\x01\x00\x00\x00\x00\x00\x00\x00'
p23
tp24
Rp25
(lp26
F0.24179104477611935
aF0.25970149253731356
aF0.26268656716417904
aF0.26567164179104474
aF0.27014925373134324
aF0.27164179104477615
aF0.27313432835820906
aF0.27462686567164174
aF0.28358208955223874
aF0.28358208955223885
aF0.28507462686567164
aF0.28955223880597014
aF0.28955223880597025
aF0.29104477611940294
aF0.29253731343283573
aF0.29253731343283584
aF0.29701492537313423
aF0.30298507462686575
aF0.30447761194029854
aF0.30447761194029854
aF0.30895522388059704
aF0.30895522388059704
aF0.30895522388059704
aF0.31194029850746274
aF0.3149253731343282
aF0.31492537313432833
aF0.3238805970149252
aF0.32686567164179103
aF0.3283582089552237
aF0.32835820895522383
aF0.33134328358208953
aF0.33582089552238803
aF0.34328358208955223
aF0.34328358208955223
aF0.344776119402985
aF0.34776119402985084
aF0.3567164179104477
aF0.35671641791044784
aF0.3656716417910447
asg18
(g12
S'\x02\x00\x00\x00\x00\x00\x00\x00'
p27
tp28
Rp29
(lp30
F0.29850746268656714
aF0.31343283582089554
aF0.3253731343283581
aF0.34328358208955223
aF0.344776119402985
aF0.3522388059701492
aF0.35671641791044784
aF0.3582089552238805
aF0.3582089552238805
aF0.36119402985074633
aF0.362686567164179
aF0.3686567164179104
aF0.3716417910447761
aF0.37313432835820903
aF0.37761194029850753
aF0.3791044776119403
aF0.38059701492537323
aF0.38208955223880603
aF0.3835820895522387
aF0.3850746268656716
aF0.3850746268656716
aF0.3865671641791045
aF0.3865671641791045
aF0.3880597014925373
aF0.3880597014925373
aF0.391044776119403
aF0.391044776119403
aF0.3925373134328358
aF0.3925373134328358
aF0.3970149253731343
aF0.3970149253731343
aF0.4029850746268656
aF0.4029850746268657
aF0.4044776119402985
aF0.4059701492537313
aF0.4059701492537314
aF0.4059701492537314
aF0.4268656716417911
aF0.4477611940298507
asa(dp31
g21
(lp32
F0.6777777777777778
aF0.625
aF0.611111111111111
aF0.6666666666666667
aF0.6666666666666666
aF0.6583333333333333
aF0.675
aF0.6
aF0.6527777777777778
aF0.6527777777777778
aF0.638888888888889
aF0.6388888888888888
aF0.5722222222222222
aF0.6166666666666665
aF0.638888888888889
aF0.6666666666666666
aF0.627777777777778
aF0.6583333333333332
aF0.663888888888889
aF0.6527777777777778
aF0.6694444444444445
aF0.6555555555555557
aF0.6361111111111111
aF0.6472222222222221
aF0.6472222222222223
aF0.688888888888889
aF0.6305555555555556
aF0.6472222222222223
aF0.6583333333333333
aF0.6805555555555556
aF0.6361111111111111
aF0.611111111111111
aF0.611111111111111
aF0.6166666666666666
aF0.6500000000000001
aF0.6583333333333334
aF0.6555555555555556
aF0.6527777777777779
aF0.6722222222222223
asg25
(lp33
F0.6222222222222221
aF0.6472222222222224
aF0.6666666666666666
aF0.625
aF0.5916666666666666
aF0.6277777777777778
aF0.6138888888888889
aF0.5777777777777778
aF0.4722222222222222
aF0.6833333333333333
aF0.6499999999999999
aF0.6333333333333332
aF0.6083333333333333
aF0.6222222222222221
aF0.6083333333333332
aF0.7111111111111111
aF0.6666666666666667
aF0.6083333333333333
aF0.6444444444444445
aF0.6500000000000001
aF0.6083333333333333
aF0.6138888888888889
aF0.6138888888888889
aF0.6305555555555556
aF0.6222222222222222
aF0.6194444444444444
aF0.5972222222222222
aF0.611111111111111
aF0.6944444444444445
aF0.6305555555555554
aF0.6472222222222221
aF0.6111111111111112
aF0.6666666666666667
aF0.75
aF0.625
aF0.6277777777777778
aF0.6166666666666668
aF0.6111111111111112
aF0.586111111111111
asg29
(lp34
F0.6666666666666667
aF0.6833333333333333
aF0.6944444444444444
aF0.6944444444444445
aF0.6777777777777778
aF0.6722222222222223
aF0.65
aF0.6583333333333333
aF0.6666666666666667
aF0.6333333333333332
aF0.6166666666666666
aF0.6249999999999999
aF0.6333333333333334
aF0.6277777777777777
aF0.6305555555555555
aF0.6583333333333334
aF0.6194444444444445
aF0.638888888888889
aF0.6138888888888889
aF0.6194444444444445
aF0.6444444444444443
aF0.6388888888888888
aF0.6611111111111111
aF0.6361111111111111
aF0.6388888888888888
aF0.6277777777777779
aF0.6444444444444444
aF0.6472222222222223
aF0.6527777777777778
aF0.638888888888889
aF0.6527777777777779
aF0.611111111111111
aF0.611111111111111
aF0.6194444444444445
aF0.6305555555555555
aF0.6472222222222223
aF0.6583333333333333
aF0.6527777777777779
aF0.5833333333333333
asa(dp35
g18
(g12
S'\x00\x00\x00\x00\x00\x00\x00\x00'
p36
tp37
Rp38
(lp39
I0
aI0
ag18
(g9
(S'f8'
p40
I0
I1
tp41
Rp42
(I3
S'<'
p43
NNNI-1
I-1
I0
tp44
bS'\xb9\x83\xfdV\x1bC\xe3?'
p45
tp46
Rp47
ag18
(g42
S'\x17\xf1\t\xa4\x92\xf3\xe2?'
p48
tp49
Rp50
ag18
(g42
S'\xcf\xcb">\x81T\xe2?'
p51
tp52
Rp53
ag18
(g42
S'.\x8c\xa2\x93\x9dA\xe4?'
p54
tp55
Rp56
ag18
(g42
S'705\x87P\xca\xe3?'
p57
tp58
Rp59
ag18
(g42
S'\x9eA\xd4\xc7z\x03\xe3?'
p60
tp61
Rp62
ag18
(g42
S'G{X\x1a\x99D\xe2?'
p63
tp64
Rp65
ag18
(g42
S'U\x1c\xedaid\xe2?'
p66
tp67
Rp68
ag18
(g42
S"\xc5'\x90J\xce\xcb\xe2?"
p69
tp70
Rp71
ag18
(g42
S'\xa2>\xd6\x1b\x98\x9a\xe3?'
p72
tp73
Rp74
ag18
(g42
S'\x08Pu\\\xc2\xd3\xe2?'
p75
tp76
Rp77
ag18
(g42
S'\xcd\xcb">\x81T\xe2?'
p78
tp79
Rp80
ag18
(g42
S'\xfa\xae\xe0\x14\xf2\xb3\xe2?'
p81
tp82
Rp83
ag18
(g42
S'\xfa\xae\xe0\x14\xf2\xb3\xe2?'
p84
tp85
Rp86
ag18
(g42
S'\x07Pu\\\xc2\xd3\xe2?'
p87
tp88
Rp89
ag18
(g42
S'.61\xdf\x15\x9c\xe2?'
p90
tp91
Rp92
ag18
(g42
S'\xeb\rL\xcd!\x94\xe2?'
p93
tp94
Rp95
ag18
(g42
S'\xef\nN!?+\xe3?'
p96
tp97
Rp98
ag18
(g42
S'LxZn\xb6\xdb\xe2?'
p99
tp100
Rp101
ag18
(g42
S'Z\x19\xef\xb5\x86\xfb\xe2?'
p102
tp103
Rp104
ag18
(g42
S'\x07Pu\\\xc2\xd3\xe2?'
p105
tp106
Rp107
ag18
(g42
S'\xef\nN!?+\xe3?'
p108
tp109
Rp110
ag18
(g42
S'\xeb\rL\xcd!\x94\xe2?'
p111
tp112
Rp113
ag18
(g42
S'\x80\xff\xaa8\xda\xc3\xe2?'
p114
tp115
Rp116
ag18
(g42
S'h\xba\x83\xfdV\x1b\xe3?'
p117
tp118
Rp119
ag18
(g42
S'\xab\xe2h\x0fK#\xe3?'
p120
tp121
Rp122
ag18
(g42
S'\x85\xfc\xac\x8c\xf7Z\xe3?'
p123
tp124
Rp125
ag18
(g42
S'\xba\x83\xfdV\x1bC\xe3?'
p126
tp127
Rp128
ag18
(g42
S'\xe1i\xb9\xd9n\x0b\xe3?'
p129
tp130
Rp131
ag18
(g42
S'\xfa\xae\xe0\x14\xf2\xb3\xe2?'
p132
tp133
Rp134
ag18
(g42
S'^\x16\xf1\t\xa4\x92\xe3?'
p135
tp136
Rp137
ag18
(g42
S'.61\xdf\x15\x9c\xe2?'
p138
tp139
Rp140
ag18
(g42
S'Pu\\\xc2\xd3r\xe3?'
p141
tp142
Rp143
ag18
(g42
S'\x8e\xa0?\x80\xaa\xe3\xe2?'
p144
tp145
Rp146
ag18
(g42
S'\x81\xff\xaa8\xda\xc3\xe2?'
p147
tp148
Rp149
ag18
(g42
S'h\xba\x83\xfdV\x1b\xe3?'
p150
tp151
Rp152
ag18
(g42
S'\xe5f\xbb-\x8c\xa2\xe3?'
p153
tp154
Rp155
ag18
(g42
S'\x84\xfc\xac\x8c\xf7Z\xe3?'
p156
tp157
Rp158
ag18
(g42
S'\xba\x83\xfdV\x1bC\xe3?'
p159
tp160
Rp161
asg18
(g12
S'\x01\x00\x00\x00\x00\x00\x00\x00'
p162
tp163
Rp164
(lp165
I0
aI0
ag18
(g42
S'\xda\x18\x9a\xee`\xbf\xe5?'
p166
tp167
Rp168
ag18
(g42
S'\x7f\xab\x8d\xa1\xe9\x0e\xe6?'
p169
tp170
Rp171
ag18
(g42
S'\xa7;\xd8o\xb51\xe4?'
p172
tp173
Rp174
ag18
(g42
S'\x92\xf3\xb2\x88O \xe5?'
p175
tp176
Rp177
ag18
(g42
S'\xc2\xd3r\xb3\xdd\x16\xe6?'
p178
tp179
Rp180
ag18
(g42
S'\xc6\xd0t\x07\xfb\xad\xe6?'
p181
tp182
Rp183
ag18
(g42
S'\xda\x18\x9a\xee`\xbf\xe5?'
p184
tp185
Rp186
ag18
(g42
S'\xb8/\xe0\xbf*\x8e\xe6?'
p187
tp188
Rp189
ag18
(g42
S'\xd5q\tO\xcb\xcd\xe6?'
p190
tp191
Rp192
ag18
(g42
S'\xea\xb9.61\xdf\xe5?'
p193
tp194
Rp195
ag18
(g42
S'X\xc5\xd1\x1e\x96F\xe6?'
p196
tp197
Rp198
ag18
(g42
S'\x83\xa8\x8f\xf5\x06\xa6\xe6?'
p199
tp200
Rp201
ag18
(g42
S'N!?+\xe3\xbd\xe6?'
p202
tp203
Rp204
ag18
(g42
S'\x89O \x95\x9c\x97\xe5?'
p205
tp206
Rp207
ag18
(g42
S"E';\x83\xa8\x8f\xe5?"
p208
tp209
Rp210
ag18
(g42
S'bid\x12I\xcf\xe5?'
p211
tp212
Rp213
ag18
(g42
S'\x98\xf0\xb4\xdcl\xb7\xe5?'
p214
tp215
Rp216
ag18
(g42
S')\xe5\x11\xf4\x07P\xe5?'
p217
tp218
Rp219
ag18
(g42
S'\xf8Z\xc3}\x01\xff\xe5?'
p220
tp221
Rp222
ag18
(g42
S'\xa1\x94G\xd0\x1f@\xe5?'
p223
tp224
Rp225
ag18
(g42
S'\x8dL"\xe9\xb9.\xe6?'
p226
tp227
Rp228
ag18
(g42
S'\x02\xffUq\xb4\x87\xe5?'
p229
tp230
Rp231
ag18
(g42
S'S\xc8\xcf\xcax\xaf\xe5?'
p232
tp233
Rp234
ag18
(g42
S'\xb05\xdc\x17\xf0_\xe5?'
p235
tp236
Rp237
ag18
(g42
S'\x1aD}\xac70\xe5?'
p238
tp239
Rp240
ag18
(g42
S'\xa2\x94G\xd0\x1f@\xe5?'
p241
tp242
Rp243
ag18
(g42
S'^lb\xbe+8\xe5?'
p244
tp245
Rp246
ag18
(g42
S'I$=\xd7\xc5&\xe6?'
p247
tp248
Rp249
ag18
(g42
S'Zo`j\x0e\xa1\xe4?'
p250
tp251
Rp252
ag18
(g42
S'\xc8z\x03Ss\x08\xe5?'
p253
tp254
Rp255
ag18
(g42
S'\xf3\x07Pu\\\xc2\xe3?'
p256
tp257
Rp258
ag18
(g42
S'\x1aD}\xac70\xe5?'
p259
tp260
Rp261
ag18
(g42
S'\xd6\x1b\x98\x9aC(\xe5?'
p262
tp263
Rp264
ag18
(g42
S'r\xb4\x87\xa5\x91I\xe4?'
p265
tp266
Rp267
ag18
(g42
S'g\x10\xf5\xb1\xde\xc0\xe4?'
p268
tp269
Rp270
ag18
(g42
S'\x9c\x97E|\x02\xa9\xe4?'
p271
tp272
Rp273
ag18
(g42
S'\xeac\xbd\x81\xa99\xe4?'
p274
tp275
Rp276
ag18
(g42
S'2\x89\xa4\xe7\xba\xd8\xe4?'
p277
tp278
Rp279
ag18
(g42
S'\x16G{X\x1a\x99\xe4?'
p280
tp281
Rp282
asg18
(g12
S'\x02\x00\x00\x00\x00\x00\x00\x00'
p283
tp284
Rp285
(lp286
I0
aI0
ag18
(g42
S'\x7f\xab\x8d\xa1\xe9\x0e\xe6?'
p287
tp288
Rp289
ag18
(g42
S'7\x86\xa6;\xd8o\xe5?'
p290
tp291
Rp292
ag18
(g42
S'\xb9\x83\xfdV\x1bC\xe3?'
p293
tp294
Rp295
ag18
(g42
S')9/\x8b\xf8\x04\xe2?'
p296
tp297
Rp298
ag18
(g42
S'\xaf\xdfjch\xba\xe3?'
p299
tp300
Rp301
ag18
(g42
S'm\xb7\x85Qt\xb2\xe3?'
p302
tp303
Rp304
ag18
(g42
S'\xee`\xbf\xd5\xc6\xd0\xe4?'
p305
tp306
Rp307
ag18
(g42
S'p\n\xf9Y\x19\xef\xe5?'
p308
tp309
Rp310
ag18
(g42
S'bid\x12I\xcf\xe5?'
p311
tp312
Rp313
ag18
(g42
S'\x84R\x1eA\x7f\x00\xe5?'
p314
tp315
Rp316
ag18
(g42
S'^lb\xbe+8\xe5?'
p317
tp318
Rp319
ag18
(g42
S'#\xe8\x0f\xa0\xea\xb8\xe4?'
p320
tp321
Rp322
ag18
(g42
S'c\x13\xf3]\xc1)\xe4?'
p323
tp324
Rp325
ag18
(g42
S'q\xb4\x87\xa5\x91I\xe4?'
p326
tp327
Rp328
ag18
(g42
S'\x02\xa9\xe4\xbc,\xe2\xe3?'
p329
tp330
Rp331
ag18
(g42
S'\xa2>\xd6\x1b\x98\x9a\xe3?'
p332
tp333
Rp334
ag18
(g42
S'\x02\xa9\xe4\xbc,\xe2\xe3?'
p335
tp336
Rp337
ag18
(g42
S'\x1f\xeb\rL\xcd!\xe4?'
p338
tp339
Rp340
ag18
(g42
S'\x11Jy\x04\xfd\x01\xe4?'
p341
tp342
Rp343
ag18
(g42
S'\x0cMw\xb0\xdfj\xe3?'
p344
tp345
Rp346
ag18
(g42
S'\x02\xa9\xe4\xbc,\xe2\xe3?'
p347
tp348
Rp349
ag18
(g42
S'\x8a\xf9\xae\xe0\x14\xf2\xe3?'
p350
tp351
Rp352
ag18
(g42
S"v[\x18E';\xe3?"
p353
tp354
Rp355
ag18
(g42
S'\xba\x83\xfdV\x1bC\xe3?'
p356
tp357
Rp358
ag18
(g42
S'zX\x1a\x99D\xd2\xe3?'
p359
tp360
Rp361
ag18
(g42
S'F\xd1\xc9\xce \xea\xe3?'
p362
tp363
Rp364
ag18
(g42
S'b\x13\xf3]\xc1)\xe4?'
p365
tp366
Rp367
ag18
(g42
S'B\xd4\xc7z\x03S\xe3?'
p368
tp369
Rp370
ag18
(g42
S'\xbe\x80\xff\xaa8\xda\xe3?'
p371
tp372
Rp373
ag18
(g42
S'\x11Jy\x04\xfd\x01\xe4?'
p374
tp375
Rp376
ag18
(g42
S'<-7\xdbma\xe4?'
p377
tp378
Rp379
ag18
(g42
S'\x11Jy\x04\xfd\x01\xe4?'
p380
tp381
Rp382
ag18
(g42
S'l\xb7\x85Qt\xb2\xe3?'
p383
tp384
Rp385
ag18
(g42
S'm\xb7\x85Qt\xb2\xe3?'
p386
tp387
Rp388
ag18
(g42
S'b\x13\xf3]\xc1)\xe4?'
p389
tp390
Rp391
ag18
(g42
S'\xb1\xdfjch\xba\xe3?'
p392
tp393
Rp394
ag18
(g42
S'\x9e\x97E|\x02\xa9\xe4?'
p395
tp396
Rp397
ag18
(g42
S'\xbf\x80\xff\xaa8\xda\xe3?'
p398
tp399
Rp400
ag18
(g42
S'\x98\x9aC(\xe5\x11\xe4?'
p401
tp402
Rp403
asa(dp404
g38
(lp405
I0
aI0
ag18
(g42
S'Q\xdd\xcb\x19L\x8d\xe3?'
p406
tp407
Rp408
ag18
(g42
S'\x98\x10\x8dC\xc7@\xe3?'
p409
tp410
Rp411
ag18
(g42
S'\r\xbc\xd0\tc\xa5\xe2?'
p412
tp413
Rp414
ag18
(g42
S'\xf5\xf8\xaas*\x87\xe4?'
p415
tp416
Rp417
ag18
(g42
S'\xf4c@\t\xb5\x12\xe4?'
p418
tp419
Rp420
ag18
(g42
S'i-\x12\x02\x93O\xe3?'
p421
tp422
Rp423
ag18
(g42
S'~g2!\x8f\x92\xe2?'
p424
tp425
Rp426
ag18
(g42
S'v\xb5\xffP\xb3\xb3\xe2?'
p427
tp428
Rp429
ag18
(g42
S'\xba\xd2\xf7\xece\x18\xe3?'
p430
tp431
Rp432
ag18
(g42
S'\x94(l\x86\x04\xe1\xe3?'
p433
tp434
Rp435
ag18
(g42
S'\x02_\xbc\\B\x1e\xe3?'
p436
tp437
Rp438
ag18
(g42
S'\xc6+\xdb\xc2\x10\xa3\xe2?'
p439
tp440
Rp441
ag18
(g42
S'\x1e(\xcf\xddD\x02\xe3?'
p442
tp443
Rp444
ag18
(g42
S'^n\x0f \x89\x01\xe3?'
p445
tp446
Rp447
ag18
(g42
S'h\xe0\xe4\xb66\x1e\xe3?'
p448
tp449
Rp450
ag18
(g42
S'\x88\xedWZ=\xe6\xe2?'
p451
tp452
Rp453
ag18
(g42
S'2\xc6\xf4\xb9g\xe1\xe2?'
p454
tp455
Rp456
ag18
(g42
S'\x8a\x18\xc1G\x13t\xe3?'
p457
tp458
Rp459
ag18
(g42
S'b\x83Ktj%\xe3?'
p460
tp461
Rp462
ag18
(g42
S'\x8aS\xe5\x9cNE\xe3?'
p463
tp464
Rp465
ag18
(g42
S'\x87\xa9\x9c\xdd\xef\x1f\xe3?'
p466
tp467
Rp468
ag18
(g42
S'\xf5\xad\xe5u\x1fs\xe3?'
p469
tp470
Rp471
ag18
(g42
S'g\x87c)}\xda\xe2?'
p472
tp473
Rp474
ag18
(g42
S'}|,\xc7\x95\x0e\xe3?'
p475
tp476
Rp477
ag18
(g42
S'\xe5B\xbe\x89Re\xe3?'
p478
tp479
Rp480
ag18
(g42
S'\xdb=/I!k\xe3?'
p481
tp482
Rp483
ag18
(g42
S'\x9f=\xe2\x9e\x95\xa4\xe3?'
p484
tp485
Rp486
ag18
(g42
S'\x00f\xdcB"\x8c\xe3?'
p487
tp488
Rp489
ag18
(g42
S'\x0c\x80\xf1\xd6\xdfV\xe3?'
p490
tp491
Rp492
ag18
(g42
S'\xa4z\x8b\x87\xea\xfd\xe2?'
p493
tp494
Rp495
ag18
(g42
S'\x12l{\xec2\xd9\xe3?'
p496
tp497
Rp498
ag18
(g42
S'\xc2oR\xde\xc8\xe4\xe2?'
p499
tp500
Rp501
ag18
(g42
S'\xec\x0b\xfd\xa1\xc2\xb6\xe3?'
p502
tp503
Rp504
ag18
(g42
S'\xea\x01\xff\x8eX,\xe3?'
p505
tp506
Rp507
ag18
(g42
S'T\xc5\xab\xf5\x9d\x0c\xe3?'
p508
tp509
Rp510
ag18
(g42
S'p\x0cb\x00\x0ed\xe3?'
p511
tp512
Rp513
ag18
(g42
S'\xcf\x02\xe9]f\xe8\xe3?'
p514
tp515
Rp516
ag18
(g42
S'\x89\x90\xe4\xe4r\xa0\xe3?'
p517
tp518
Rp519
ag18
(g42
S';@S#V\x88\xe3?'
p520
tp521
Rp522
asg164
(lp523
I0
aI0
ag18
(g42
S'\xbe6\xe5.\xf0\xf7\xe5?'
p524
tp525
Rp526
ag18
(g42
S'\x97[\xe3\x82\x9bI\xe6?'
p527
tp528
Rp529
ag18
(g42
S'\xa7;\xd8o\xb51\xe4?'
p530
tp531
Rp532
ag18
(g42
S'b\x8f\xc4PL\\\xe5?'
p533
tp534
Rp535
ag18
(g42
S'.\xf5\xe5\x0c\xaeD\xe6?'
p536
tp537
Rp538
ag18
(g42
S'<\xb1\xb9\x9d\x99\xdb\xe6?'
p539
tp540
Rp541
ag18
(g42
S'\xea\xe9WT+\xed\xe5?'
p542
tp543
Rp544
ag18
(g42
S'\xfbZ\r\x06B\xb8\xe6?'
p545
tp546
Rp547
ag18
(g42
S'\xfa\xe9,\xd5\xf4\xee\xe6?'
p548
tp549
Rp550
ag18
(g42
S'\x95\x90j\x18\x8a\x04\xe6?'
p551
tp552
Rp553
ag18
(g42
S'\xc1+R\x1a\xa3b\xe6?'
p554
tp555
Rp556
ag18
(g42
S'\xb5fw\xefH\xc3\xe6?'
p557
tp558
Rp559
ag18
(g42
S'>H\xbb\x85l\xce\xe6?'
p560
tp561
Rp562
ag18
(g42
S'\x88s\xb6{\x0c\xba\xe5?'
p563
tp564
Rp565
ag18
(g42
S'\xb2\xec\x1a,\xc8\xa5\xe5?'
p566
tp567
Rp568
ag18
(g42
S'y6|\x84\x14\xe4\xe5?'
p569
tp570
Rp571
ag18
(g42
S'\xa1\x84ESq\xdc\xe5?'
p572
tp573
Rp574
ag18
(g42
S'\xe8\xb19\xec\xb4v\xe5?'
p575
tp576
Rp577
ag18
(g42
S'\xba\xa3\xfc\x10|\x1b\xe6?'
p578
tp579
Rp580
ag18
(g42
S"j'\xe6p\x14l\xe5?"
p581
tp582
Rp583
ag18
(g42
S'\xb4gq\xa4\x06L\xe6?'
p584
tp585
Rp586
ag18
(g42
S'\xd2\x97\xac\x9f\xf1\xaa\xe5?'
p587
tp588
Rp589
ag18
(g42
S'\xd2\x82\x0c\xbf"\xdc\xe5?'
p590
tp591
Rp592
ag18
(g42
S'\xeaU^ !\x8e\xe5?'
p593
tp594
Rp595
ag18
(g42
S'Y<\xec\xde\xebY\xe5?'
p596
tp597
Rp598
ag18
(g42
S'\xafo\xcbV\xfdj\xe5?'
p599
tp600
Rp601
ag18
(g42
S'\xdb\x92\x83\xb09b\xe5?'
p602
tp603
Rp604
ag18
(g42
S'\xd2\xd8F\x08\\M\xe6?'
p605
tp606
Rp607
ag18
(g42
S'#\xde\xfd\x8a_\xd7\xe4?'
p608
tp609
Rp610
ag18
(g42
S'\x96\xb6c-\x13>\xe5?'
p611
tp612
Rp613
ag18
(g42
S'\x0f\xffZ\xf2\xa3\xfe\xe3?'
p614
tp615
Rp616
ag18
(g42
S'\xc9\xbe\x95;\xde^\xe5?'
p617
tp618
Rp619
ag18
(g42
S'\xbeh\xb3\x01\x94\\\xe5?'
p620
tp621
Rp622
ag18
(g42
S'\xb81qT\xf3\x83\xe4?'
p623
tp624
Rp625
ag18
(g42
S'\xbe&cM{\xf0\xe4?'
p626
tp627
Rp628
ag18
(g42
S'i\xd4gt"\xde\xe4?'
p629
tp630
Rp631
ag18
(g42
S'\xdb@Xz$t\xe4?'
p632
tp633
Rp634
ag18
(g42
S'\xb3\xa0\xd6~C\x0b\xe5?'
p635
tp636
Rp637
ag18
(g42
S'j\x95\xcd\x94:\xcf\xe4?'
p638
tp639
Rp640
asg285
(lp641
I0
aI0
ag18
(g42
S'\xf1\xa6b\xdd^=\xe6?'
p642
tp643
Rp644
ag18
(g42
S'1\xb0\xca\xe2\x01\xac\xe5?'
p645
tp646
Rp647
ag18
(g42
S'Q\xdd\xcb\x19L\x8d\xe3?'
p648
tp649
Rp650
ag18
(g42
S'\xe1\xbb\x83U\xf0W\xe2?'
p651
tp652
Rp653
ag18
(g42
S'\xa9e\xbc<\xe5\x02\xe4?'
p654
tp655
Rp656
ag18
(g42
S'ky\x9e\x9cQ\xfa\xe3?'
p657
tp658
Rp659
ag18
(g42
S'/t\xb0\xd7\x1c\x0f\xe5?'
p660
tp661
Rp662
ag18
(g42
S'd\xb4\xe9\x11<"\xe6?'
p663
tp664
Rp665
ag18
(g42
S'\xd29k\x85\xb7\x05\xe6?'
p666
tp667
Rp668
ag18
(g42
S'\xaa\r\xb5\xd40<\xe5?'
p669
tp670
Rp671
ag18
(g42
S'n__\xdb\xe8r\xe5?'
p672
tp673
Rp674
ag18
(g42
S'\xfa[\xf6\xa0\x80\xf5\xe4?'
p675
tp676
Rp677
ag18
(g42
S'\xaf\xd5\x99FGm\xe4?'
p678
tp679
Rp680
ag18
(g42
S'\xc6\xac\xba\xe4\x8a\x8b\xe4?'
p681
tp682
Rp683
ag18
(g42
S'W|\xe8\xc77&\xe4?'
p684
tp685
Rp686
ag18
(g42
S'a\x16+t\x0b\xe1\xe3?'
p687
tp688
Rp689
ag18
(g42
S'R^\xba\xfd/%\xe4?'
p690
tp691
Rp692
ag18
(g42
S'O\x81!\xb2\xd7`\xe4?'
p693
tp694
Rp695
ag18
(g42
S'\xf6aO\xe2DF\xe4?'
p696
tp697
Rp698
ag18
(g42
S'\xf2P\xfe6\xe8\xb1\xe3?'
p699
tp700
Rp701
ag18
(g42
S'\xcb\xd7\x9a\xeb\xed#\xe4?'
p702
tp703
Rp704
ag18
(g42
S'\xde\xdc\x9a\xb0\x1d3\xe4?'
p705
tp706
Rp707
ag18
(g42
S'e\xa0\x02\xaa\xe7\x83\xe3?'
p708
tp709
Rp710
ag18
(g42
S'o\xf3R\xe5U\x8a\xe3?'
p711
tp712
Rp713
ag18
(g42
S'\x90\xb8U\xb3e\x15\xe4?'
p714
tp715
Rp716
ag18
(g42
S'\xc0j\xbe{\xda-\xe4?'
p717
tp718
Rp719
ag18
(g42
S'\x92w\xa0\xed\x7fi\xe4?'
p720
tp721
Rp722
ag18
(g42
S'\xfc\x11\x04x\xe8\x9a\xe3?'
p723
tp724
Rp725
ag18
(g42
S'\xc8\xb6\xfc\x94\x0b \xe4?'
p726
tp727
Rp728
ag18
(g42
S'S\x88p\xca\xe8C\xe4?'
p729
tp730
Rp731
ag18
(g42
S'\xb7Z\x04\xa2l\x9e\xe4?'
p732
tp733
Rp734
ag18
(g42
S'\x12SZt E\xe4?'
p735
tp736
Rp737
ag18
(g42
S'\xfb^97}\xf7\xe3?'
p738
tp739
Rp740
ag18
(g42
S'>Lr\xde\xbd\xf3\xe3?'
p741
tp742
Rp743
ag18
(g42
S'\x14\xd3\xc7{\xafh\xe4?'
p744
tp745
Rp746
ag18
(g42
S'\xc2r\x8d\xed\xba\xfe\xe3?'
p747
tp748
Rp749
ag18
(g42
S'\xbf\xb1\xb1\xed\xe3\xe6\xe4?'
p750
tp751
Rp752
ag18
(g42
S'MW\xd3\x81\x83\x1e\xe4?'
p753
tp754
Rp755
ag18
(g42
S'!n\x11G\x00T\xe4?'
p756
tp757
Rp758
asa(dp759
g38
(lp760
I0
aI0
aF0.611111111111111
aF0.638888888888889
aF0.611111111111111
aF0.6777777777777778
aF0.6666666666666667
aF0.6527777777777778
aF0.5722222222222222
aF0.6166666666666666
aF0.6
aF0.625
aF0.627777777777778
aF0.611111111111111
aF0.6166666666666665
aF0.6361111111111111
aF0.6472222222222223
aF0.6527777777777779
aF0.6305555555555556
aF0.6694444444444445
aF0.6583333333333334
aF0.6555555555555557
aF0.6472222222222221
aF0.663888888888889
aF0.6722222222222223
aF0.6500000000000001
aF0.6583333333333332
aF0.6805555555555556
aF0.6527777777777778
aF0.6666666666666666
aF0.6388888888888888
aF0.6555555555555556
aF0.6666666666666666
aF0.6361111111111111
aF0.6583333333333333
aF0.6583333333333333
aF0.6472222222222223
aF0.638888888888889
aF0.675
aF0.6527777777777778
aF0.688888888888889
asg164
(lp761
I0
aI0
aF0.6944444444444445
aF0.75
aF0.4722222222222222
aF0.6666666666666667
aF0.6666666666666667
aF0.7111111111111111
aF0.6500000000000001
aF0.6833333333333333
aF0.6666666666666666
aF0.6333333333333332
aF0.625
aF0.6472222222222224
aF0.6222222222222221
aF0.6083333333333333
aF0.5777777777777778
aF0.5916666666666666
aF0.6222222222222221
aF0.6083333333333333
aF0.6138888888888889
aF0.6138888888888889
aF0.6277777777777778
aF0.6083333333333332
aF0.6444444444444445
aF0.6305555555555556
aF0.6083333333333333
aF0.6138888888888889
aF0.6222222222222222
aF0.6499999999999999
aF0.625
aF0.6305555555555554
aF0.586111111111111
aF0.6194444444444444
aF0.6472222222222221
aF0.6166666666666668
aF0.5972222222222222
aF0.6111111111111112
aF0.6111111111111112
aF0.611111111111111
aF0.6277777777777778
asg285
(lp762
I0
aI0
aF0.6666666666666667
aF0.6944444444444445
aF0.611111111111111
aF0.5833333333333333
aF0.6583333333333333
aF0.638888888888889
aF0.6666666666666667
aF0.6833333333333333
aF0.6944444444444444
aF0.6722222222222223
aF0.6777777777777778
aF0.6583333333333333
aF0.6611111111111111
aF0.6583333333333334
aF0.6444444444444444
aF0.6472222222222223
aF0.6472222222222223
aF0.6249999999999999
aF0.6444444444444443
aF0.6305555555555555
aF0.6388888888888888
aF0.6527777777777778
aF0.6527777777777779
aF0.611111111111111
aF0.6194444444444445
aF0.6388888888888888
aF0.6333333333333334
aF0.6194444444444445
aF0.6527777777777779
aF0.638888888888889
aF0.6333333333333332
aF0.6305555555555555
aF0.6277777777777779
aF0.6138888888888889
aF0.6166666666666666
aF0.6194444444444445
aF0.65
aF0.6361111111111111
aF0.6277777777777777
asa(dp763
g38
(lp764
I0
aI0
aF0.5970149253731343
aF0.5671641791044777
aF0.5522388059701493
aF0.6089552238805971
aF0.5925373134328358
aF0.5626865671641792
aF0.5701492537313433
aF0.5522388059701492
aF0.5805970149253731
aF0.6059701492537314
aF0.5671641791044776
aF0.5522388059701492
aF0.5671641791044777
aF0.5567164179104478
aF0.5567164179104477
aF0.5432835820895522
aF0.5537313432835821
aF0.5611940298507462
aF0.5522388059701492
aF0.5597014925373134
aF0.5567164179104477
aF0.5641791044776119
aF0.5313432835820895
aF0.5522388059701492
aF0.5641791044776119
aF0.5537313432835821
aF0.5791044776119404
aF0.5671641791044777
aF0.5716417910447762
aF0.5462686567164179
aF0.5820895522388059
aF0.5522388059701494
aF0.5805970149253732
aF0.5537313432835821
aF0.5537313432835821
aF0.5746268656716417
aF0.5805970149253732
aF0.5791044776119404
aF0.5552238805970149
asg164
(lp765
I0
aI0
aF0.6716417910447763
aF0.6567164179104478
aF0.7164179104477613
aF0.6567164179104478
aF0.7029850746268658
aF0.7074626865671642
aF0.6955223880597015
aF0.7164179104477612
aF0.737313432835821
aF0.7104477611940299
aF0.7343283582089553
aF0.7402985074626864
aF0.7582089552238807
aF0.7104477611940297
aF0.7253731343283583
aF0.7298507462686568
aF0.7089552238805971
aF0.6970149253731343
aF0.726865671641791
aF0.691044776119403
aF0.7283582089552239
aF0.7074626865671643
aF0.6955223880597015
aF0.6880597014925373
aF0.691044776119403
aF0.691044776119403
aF0.6850746268656718
aF0.7149253731343284
aF0.655223880597015
aF0.6716417910447762
aF0.6343283582089553
aF0.6850746268656717
aF0.6686567164179105
aF0.6432835820895523
aF0.6761194029850748
aF0.664179104477612
aF0.6432835820895522
aF0.673134328358209
aF0.6522388059701492
asg285
(lp766
I0
aI0
aF0.7014925373134329
aF0.6567164179104478
aF0.5970149253731343
aF0.5522388059701493
aF0.5940298507462686
aF0.6029850746268657
aF0.6417910447761195
aF0.6865671641791045
aF0.6746268656716419
aF0.6477611940298508
aF0.655223880597015
aF0.6417910447761195
aF0.6134328358208955
aF0.6208955223880597
aF0.608955223880597
aF0.5940298507462686
aF0.6074626865671642
aF0.6313432835820896
aF0.6149253731343284
aF0.5940298507462687
aF0.6119402985074627
aF0.6074626865671642
aF0.5731343283582089
aF0.5970149253731344
aF0.6194029850746268
aF0.6134328358208955
aF0.6283582089552239
aF0.5955223880597015
aF0.6029850746268657
aF0.617910447761194
aF0.6388059701492537
aF0.6223880597014925
aF0.608955223880597
aF0.6164179104477613
aF0.637313432835821
aF0.6149253731343284
aF0.6432835820895522
aF0.6119402985074627
aF0.626865671641791
asa(dp767
g18
(g12
S'\x00\x00\x00\x00\x00\x00\x00\x00'
p768
tp769
Rp770
(lp771
I0
aI0
ag18
(g42
S'\x87\xd4\x04\xe3\xad\xec\xe3?'
p772
tp773
Rp774
ag18
(g42
S'\xc1x+\xfb\x1cR\xe3?'
p775
tp776
Rp777
ag18
(g42
S'\xc1x+\xfb\x1cR\xe3?'
p778
tp779
Rp780
ag18
(g42
S'\x15S\xda\xae\xb3\x96\xe4?'
p781
tp782
Rp783
ag18
(g42
S'\x87\xd4\x04\xe3\xad\xec\xe3?'
p784
tp785
Rp786
ag18
(g42
S'N\xf7\x00\xc7"\xfc\xe3?'
p787
tp788
Rp789
ag18
(g42
S'ne\x9fCj\x82\xe1?'
p790
tp791
Rp792
ag18
(g42
S'RLi\xbb\xceZ\xe2?'
p793
tp794
Rp795
ag18
(g42
S'\xc3\x06q\xf3\xe4;\xe2?'
p796
tp797
Rp798
ag18
(g42
S'\xbf\xb1\x08\xff8\xdd\xe3?'
p799
tp800
Rp801
ag18
(g42
S'\xc2?N\xf7\x00\xc7\xe2?'
p802
tp803
Rp804
ag18
(g42
S'P\x85F\xbf\xea\xe5\xe2?'
p805
tp806
Rp807
ag18
(g42
S'333333\xe3?'
p808
tp809
Rp810
ag18
(g42
S'kI\x14S\xda\xae\xe3?'
p811
tp812
Rp813
ag18
(g42
S'\xc1\xb1\x08\xff8\xdd\xe3?'
p814
tp815
Rp816
ag18
(g42
S'\xdc\x03\x1c\x8b\xf0\x8f\xe3?'
p817
tp818
Rp819
ag18
(g42
S'N\xbe#\xc3\x06q\xe3?'
p820
tp821
Rp822
ag18
(g42
S'\xc0\xb1\x08\xff8\xdd\xe3?'
p823
tp824
Rp825
ag18
(g42
S'0\xa5\xed:kI\xe4?'
p826
tp827
Rp828
ag18
(g42
S'\xbf\xb1\x08\xff8\xdd\xe3?'
p829
tp830
Rp831
ag18
(g42
S'N\xf7\x00\xc7"\xfc\xe3?'
p832
tp833
Rp834
ag18
(g42
S'\xa3_\xf5r\x81*\xe4?'
p835
tp836
Rp837
ag18
(g42
S'\x87\xd4\x04\xe3\xad\xec\xe3?'
p838
tp839
Rp840
ag18
(g42
S'\x87\xd4\x04\xe3\xad\xec\xe3?'
p841
tp842
Rp843
ag18
(g42
S'1\xa5\xed:kI\xe4?'
p844
tp845
Rp846
ag18
(g42
S'\xbe#\xc3\x06q\xf3\xe4?'
p847
tp848
Rp849
ag18
(g42
S'2l\x107O\xbe\xe3?'
p850
tp851
Rp852
ag18
(g42
S'1\xa5\xed:kI\xe4?'
p853
tp854
Rp855
ag18
(g42
S'jI\x14S\xda\xae\xe3?'
p856
tp857
Rp858
ag18
(g42
S'N\xf7\x00\xc7"\xfc\xe3?'
p859
tp860
Rp861
ag18
(g42
S'N\xf7\x00\xc7"\xfc\xe3?'
p862
tp863
Rp864
ag18
(g42
S'\xa4&\x18oe\x9f\xe3?'
p865
tp866
Rp867
ag18
(g42
S'\xa2_\xf5r\x81*\xe4?'
p868
tp869
Rp870
ag18
(g42
S'\xfa\x8e\x0c\x1b\xc4\xcd\xe3?'
p871
tp872
Rp873
ag18
(g42
S'kI\x14S\xda\xae\xe3?'
p874
tp875
Rp876
ag18
(g42
S'\xfa\x8e\x0c\x1b\xc4\xcd\xe3?'
p877
tp878
Rp879
ag18
(g42
S'/\xde\xca>\x87\xd4\xe4?'
p880
tp881
Rp882
ag18
(g42
S'\xdb<\xf9\x8e\x0c\x1b\xe4?'
p883
tp884
Rp885
ag18
(g42
S'\xf8\xc7\xe9\x1e\xe0X\xe4?'
p886
tp887
Rp888
asg18
(g12
S'\x01\x00\x00\x00\x00\x00\x00\x00'
p889
tp890
Rp891
(lp892
I0
aI0
ag18
(g42
S'\xf7\xf5\xf5\xf5\xf5\xf5\xe5?'
p893
tp894
Rp895
ag18
(g42
S'\x97\x96\x96\x96\x96\x96\xe6?'
p896
tp897
Rp898
ag18
(g42
S'\xf7\xf5\xf5\xf5\xf5\xf5\xe5?'
p899
tp900
Rp901
ag18
(g42
S'\xf7\xf5\xf5\xf5\xf5\xf5\xe5?'
p902
tp903
Rp904
ag18
(g42
S'vuuuuu\xe5?'
p905
tp906
Rp907
ag18
(g42
S'hggggg\xe7?'
p908
tp909
Rp910
ag18
(g42
S'gfffff\xe6?'
p911
tp912
Rp913
ag18
(g42
S'\xe7\xe6\xe6\xe6\xe6\xe6\xe6?'
p914
tp915
Rp916
ag18
(g42
S'WWWWWW\xe7?'
p917
tp918
Rp919
ag18
(g42
S'VUUUUU\xe5?'
p920
tp921
Rp922
ag18
(g42
S'\x87\x86\x86\x86\x86\x86\xe6?'
p923
tp924
Rp925
ag18
(g42
S'WWWWWW\xe7?'
p926
tp927
Rp928
ag18
(g42
S'\xa8\xa6\xa6\xa6\xa6\xa6\xe6?'
p929
tp930
Rp931
ag18
(g42
S'\xc7\xc5\xc5\xc5\xc5\xc5\xe5?'
p932
tp933
Rp934
ag18
(g42
S'VUUUUU\xe5?'
p935
tp936
Rp937
ag18
(g42
S'\x07\x06\x06\x06\x06\x06\xe6?'
p938
tp939
Rp940
ag18
(g42
S'\xd6\xd5\xd5\xd5\xd5\xd5\xe5?'
p941
tp942
Rp943
ag18
(g42
S'\xd6\xd5\xd5\xd5\xd5\xd5\xe5?'
p944
tp945
Rp946
ag18
(g42
S'\x07\x07\x07\x07\x07\x07\xe7?'
p947
tp948
Rp949
ag18
(g42
S'uuuuuu\xe5?'
p950
tp951
Rp952
ag18
(g42
S'ffffff\xe6?'
p953
tp954
Rp955
ag18
(g42
S'\x16\x16\x16\x16\x16\x16\xe6?'
p956
tp957
Rp958
ag18
(g42
S'GFFFFF\xe6?'
p959
tp960
Rp961
ag18
(g42
S'\x06\x06\x06\x06\x06\x06\xe6?'
p962
tp963
Rp964
ag18
(g42
S'\xf7\xf5\xf5\xf5\xf5\xf5\xe5?'
p965
tp966
Rp967
ag18
(g42
S'\xa6\xa5\xa5\xa5\xa5\xa5\xe5?'
p968
tp969
Rp970
ag18
(g42
S'feeeee\xe5?'
p971
tp972
Rp973
ag18
(g42
S'\x87\x86\x86\x86\x86\x86\xe6?'
p974
tp975
Rp976
ag18
(g42
S'\x87\x85\x85\x85\x85\x85\xe5?'
p977
tp978
Rp979
ag18
(g42
S'\xd7\xd5\xd5\xd5\xd5\xd5\xe5?'
p980
tp981
Rp982
ag18
(g42
S'\xf6\xf4\xf4\xf4\xf4\xf4\xe4?'
p983
tp984
Rp985
ag18
(g42
S'\x07\x06\x06\x06\x06\x06\xe6?'
p986
tp987
Rp988
ag18
(g42
S'\xd6\xd5\xd5\xd5\xd5\xd5\xe5?'
p989
tp990
Rp991
ag18
(g42
S'\x06\x05\x05\x05\x05\x05\xe5?'
p992
tp993
Rp994
ag18
(g42
S'\xc6\xc5\xc5\xc5\xc5\xc5\xe5?'
p995
tp996
Rp997
ag18
(g42
S'655555\xe5?'
p998
tp999
Rp1000
ag18
(g42
S'vuuuuu\xe5?'
p1001
tp1002
Rp1003
ag18
(g42
S'\xb6\xb5\xb5\xb5\xb5\xb5\xe5?'
p1004
tp1005
Rp1006
ag18
(g42
S'UUUUUU\xe5?'
p1007
tp1008
Rp1009
asg18
(g12
S'\x02\x00\x00\x00\x00\x00\x00\x00'
p1010
tp1011
Rp1012
(lp1013
I0
aI0
ag18
(g42
S'28\x1f\x83\xf31\xe8?'
p1014
tp1015
Rp1016
ag18
(g42
S'\xa1v%jW\xa2\xe6?'
p1017
tp1018
Rp1019
ag18
(g42
S'J\xd4\xaeD\xedJ\xe4?'
p1020
tp1021
Rp1022
ag18
(g42
S'\xf318\x1f\x83\xf3\xe1?'
p1023
tp1024
Rp1025
ag18
(g42
S':\x15\xabS\xb1:\xe5?'
p1026
tp1027
Rp1028
ag18
(g42
S'J\xd4\xaeD\xedJ\xe4?'
p1029
tp1030
Rp1031
ag18
(g42
S'\xb25)[\x93\xb2\xe5?'
p1032
tp1033
Rp1034
ag18
(g42
S'}\x07\xe2w ~\xe7?'
p1035
tp1036
Rp1037
ag18
(g42
S'\xb5&ekR\xb6\xe6?'
p1038
tp1039
Rp1040
ag18
(g42
S'>\x06\xe7cp>\xe6?'
p1041
tp1042
Rp1043
ag18
(g42
S'u%jW\xa2v\xe5?'
p1044
tp1045
Rp1046
ag18
(g42
S'&ekR\xb6&\xe5?'
p1047
tp1048
Rp1049
ag18
(g42
S'\xd6\xa4lM\xca\xd6\xe4?'
p1050
tp1051
Rp1052
ag18
(g42
S':\x15\xabS\xb1:\xe5?'
p1053
tp1054
Rp1055
ag18
(g42
S'\xfe\x04\xecO\xc0\xfe\xe4?'
p1056
tp1057
Rp1058
ag18
(g42
S'\x9a\x94\xadI\xd9\x9a\xe4?'
p1059
tp1060
Rp1061
ag18
(g42
S'J\xd4\xaeD\xedJ\xe4?'
p1062
tp1063
Rp1064
ag18
(g42
S'\xaeD\xedJ\xd4\xae\xe4?'
p1065
tp1066
Rp1067
ag18
(g42
S'\xd6\xa4lM\xca\xd6\xe4?'
p1068
tp1069
Rp1070
ag18
(g42
S'\xd6\xa4lM\xca\xd6\xe4?'
p1071
tp1072
Rp1073
ag18
(g42
S'r4.G\xe3r\xe4?'
p1074
tp1075
Rp1076
ag18
(g42
S'v%jW\xa2v\xe5?'
p1077
tp1078
Rp1079
ag18
(g42
S'#t/B\xf7"\xe4?'
p1080
tp1081
Rp1082
ag18
(g42
S'J\xd4\xaeD\xedJ\xe4?'
p1083
tp1084
Rp1085
ag18
(g42
S'\xaeD\xedJ\xd4\xae\xe4?'
p1086
tp1087
Rp1088
ag18
(g42
S'\xd2\xb30=\x0b\xd3\xe3?'
p1089
tp1090
Rp1091
ag18
(g42
S'\xd6\xa4lM\xca\xd6\xe4?'
p1092
tp1093
Rp1094
ag18
(g42
S'\xaaS\xb1:\x15\xab\xe3?'
p1095
tp1096
Rp1097
ag18
(g42
S'\xfe\x04\xecO\xc0\xfe\xe4?'
p1098
tp1099
Rp1100
ag18
(g42
S'\x0e\xc4\xef@\xfc\x0e\xe4?'
p1101
tp1102
Rp1103
ag18
(g42
S'^\x84\xeeE\xe8^\xe4?'
p1104
tp1105
Rp1106
ag18
(g42
S'r4.G\xe3r\xe4?'
p1107
tp1108
Rp1109
ag18
(g42
S'\xe7cp>\x06\xe7\xe3?'
p1110
tp1111
Rp1112
ag18
(g42
S'6$oC\xf26\xe4?'
p1113
tp1114
Rp1115
ag18
(g42
S'"t/B\xf7"\xe4?'
p1116
tp1117
Rp1118
ag18
(g42
S'r4.G\xe3r\xe4?'
p1119
tp1120
Rp1121
ag18
(g42
S'bu*V\xa7b\xe5?'
p1122
tp1123
Rp1124
ag18
(g42
S'r4.G\xe3r\xe4?'
p1125
tp1126
Rp1127
ag18
(g42
S'\x12\xb5+Q\xbb\x12\xe5?'
p1128
tp1129
Rp1130
asa(dp1131
g770
(lp1132
I0
aI0
ag18
(g42
S'\x87\xd4\x04\xe3\xad\xec\xe3?'
p1133
tp1134
Rp1135
ag18
(g42
S'\x07\x06k\x81\xccO\xe3?'
p1136
tp1137
Rp1138
ag18
(g42
S'\xc1x+\xfb\x1cR\xe3?'
p1139
tp1140
Rp1141
ag18
(g42
S'\x83XC\xde\x12\x96\xe4?'
p1142
tp1143
Rp1144
ag18
(g42
S'\x87\xd4\x04\xe3\xad\xec\xe3?'
p1145
tp1146
Rp1147
ag18
(g42
S'\xeb\xc4\xe9Bt\xf9\xe3?'
p1148
tp1149
Rp1150
ag18
(g42
S'\xc1a\x18\x03|\x7f\xe1?'
p1151
tp1152
Rp1153
ag18
(g42
S'b\x1e7\xf3\x92Y\xe2?'
p1154
tp1155
Rp1156
ag18
(g42
S'\x99\xa1b\xec<9\xe2?'
p1157
tp1158
Rp1159
ag18
(g42
S'\x01\x13\x89\xd5u\xd9\xe3?'
p1160
tp1161
Rp1162
ag18
(g42
S'\x13\xb5\x16[)\xc3\xe2?'
p1163
tp1164
Rp1165
ag18
(g42
S'V~\xe7%\x19\xe3\xe2?'
p1166
tp1167
Rp1168
ag18
(g42
S'OK\x98\xb6f0\xe3?'
p1169
tp1170
Rp1171
ag18
(g42
S'\x0eL\x84yR\xac\xe3?'
p1172
tp1173
Rp1174
ag18
(g42
S'\x89e\x8f\xc9\xe4\xd2\xe3?'
p1175
tp1176
Rp1177
ag18
(g42
S'\xb4cl\xde;\x89\xe3?'
p1178
tp1179
Rp1180
ag18
(g42
S'D\x1fEbVm\xe3?'
p1181
tp1182
Rp1183
ag18
(g42
S's\xca\xb2w5\xd4\xe3?'
p1184
tp1185
Rp1186
ag18
(g42
S'\tu\x1ej\x1d?\xe4?'
p1187
tp1188
Rp1189
ag18
(g42
S'\xbf\xb6q\xa8\xce\xd7\xe3?'
p1190
tp1191
Rp1192
ag18
(g42
S'E\x03\xa8\xd8\xe5\xf6\xe3?'
p1193
tp1194
Rp1195
ag18
(g42
S'\xf6\xa1~\x91\xfc \xe4?'
p1196
tp1197
Rp1198
ag18
(g42
S'{\xe4\xfc\x8c\x00\xe1\xe3?'
p1199
tp1200
Rp1201
ag18
(g42
S'\x9c\x17\xc5\xc8-\xe5\xe3?'
p1202
tp1203
Rp1204
ag18
(g42
S'J\x8d\xbbF\rA\xe4?'
p1205
tp1206
Rp1207
ag18
(g42
S'U\xb7r \xd6\xea\xe4?'
p1208
tp1209
Rp1210
ag18
(g42
S'.\xe3\xda}\xb4\xb7\xe3?'
p1211
tp1212
Rp1213
ag18
(g42
S'\x9b$\x9cD\xb6E\xe4?'
p1214
tp1215
Rp1216
ag18
(g42
S'\x8c\xbc1\xf8\xd6\xa7\xe3?'
p1217
tp1218
Rp1219
ag18
(g42
S'\x8c\xb6r\x122\xf0\xe3?'
p1220
tp1221
Rp1222
ag18
(g42
S'Di\xdfZ\x12\xf8\xe3?'
p1223
tp1224
Rp1225
ag18
(g42
S'\xed\x8e\x81b\xd5\x95\xe3?'
p1226
tp1227
Rp1228
ag18
(g42
S'\xc6\xdf\xc9\xa8\xb2 \xe4?'
p1229
tp1230
Rp1231
ag18
(g42
S'\x95\xd2$\x07\x86\xc2\xe3?'
p1232
tp1233
Rp1234
ag18
(g42
S'\xaa\xef\x94\x9e\xfc\xa1\xe3?'
p1235
tp1236
Rp1237
ag18
(g42
S'\xcdX\xa8\xf2A\xbf\xe3?'
p1238
tp1239
Rp1240
ag18
(g42
S'1=6\xd34\xc9\xe4?'
p1241
tp1242
Rp1243
ag18
(g42
S'\x1dC\x1b\x94C\x12\xe4?'
p1244
tp1245
Rp1246
ag18
(g42
S'\xecV\xa6\x1ciG\xe4?'
p1247
tp1248
Rp1249
asg891
(lp1250
I0
aI0
ag18
(g42
S'\xf7\xf5\xf5\xf5\xf5\xf5\xe5?'
p1251
tp1252
Rp1253
ag18
(g42
S'\x1dsP^\xf2\x83\xe6?'
p1254
tp1255
Rp1256
ag18
(g42
S'a\xf1d\xf5\xa9\xcb\xe5?'
p1257
tp1258
Rp1259
ag18
(g42
S'\xf7\xf5\xf5\xf5\xf5\xf5\xe5?'
p1260
tp1261
Rp1262
ag18
(g42
S'Ye\x8b \xaet\xe5?'
p1263
tp1264
Rp1265
ag18
(g42
S'Hhi1\x99e\xe7?'
p1266
tp1267
Rp1268
ag18
(g42
S'\xf41}d\xc8`\xe6?'
p1269
tp1270
Rp1271
ag18
(g42
S'\x93\x92\xc1r\xfe\xe4\xe6?'
p1272
tp1273
Rp1274
ag18
(g42
S'\x9d\xd8d\xe1 M\xe7?'
p1275
tp1276
Rp1277
ag18
(g42
S'\xfa\x95$\xd6\xc2H\xe5?'
p1278
tp1279
Rp1280
ag18
(g42
S'P\x9d\xa4\x07Hq\xe6?'
p1281
tp1282
Rp1283
ag18
(g42
S'rJ8\xddSA\xe7?'
p1284
tp1285
Rp1286
ag18
(g42
S'\x8e\xe9\x0e\x9b\xc7\x84\xe6?'
p1287
tp1288
Rp1289
ag18
(g42
S'\xa9\\)\xbf\xf1\xb1\xe5?'
p1290
tp1291
Rp1292
ag18
(g42
S'\xb0\x7f\x05+!,\xe5?'
p1293
tp1294
Rp1295
ag18
(g42
S'\x01\xe2y\xafm\xdd\xe5?'
p1296
tp1297
Rp1298
ag18
(g42
S'\x14\x1a\xfe\xaa\xd1\xc9\xe5?'
p1299
tp1300
Rp1301
ag18
(g42
S'A\x9ex\xd8\xd3\xc3\xe5?'
p1302
tp1303
Rp1304
ag18
(g42
S'\xed8\x7f\xb3M\xf0\xe6?'
p1305
tp1306
Rp1307
ag18
(g42
S'\xeeO\x80%\x1fh\xe5?'
p1308
tp1309
Rp1310
ag18
(g42
S'\x8b\xafEi\x98T\xe6?'
p1311
tp1312
Rp1313
ag18
(g42
S'`q\xa1`\xe0\x03\xe6?'
p1314
tp1315
Rp1316
ag18
(g42
S'\xc2\x02\x89\xce%9\xe6?'
p1317
tp1318
Rp1319
ag18
(g42
S'M\x12\xe2\xbcF\xfc\xe5?'
p1320
tp1321
Rp1322
ag18
(g42
S'O\xb1;4\xed\xe9\xe5?'
p1323
tp1324
Rp1325
ag18
(g42
S'b\x88\xd9\x05[\x97\xe5?'
p1326
tp1327
Rp1328
ag18
(g42
S'<\xc79\xd4\x9aU\xe5?'
p1329
tp1330
Rp1331
ag18
(g42
S'f\xfb\xbbP:\x81\xe6?'
p1332
tp1333
Rp1334
ag18
(g42
S'\x88\xfa+%\x08y\xe5?'
p1335
tp1336
Rp1337
ag18
(g42
S'\xc8\x7f\x96\xe8\xbf\xce\xe5?'
p1338
tp1339
Rp1340
ag18
(g42
S'#\xcd\xb1\xfc\x06\xec\xe4?'
p1341
tp1342
Rp1343
ag18
(g42
S'\x9f\x88L\x9f\x10\xfc\xe5?'
p1344
tp1345
Rp1346
ag18
(g42
S'Cb\x82\x1f\xbc\xcd\xe5?'
p1347
tp1348
Rp1349
ag18
(g42
S'\xb3\x84M\x1bq\xfd\xe4?'
p1350
tp1351
Rp1352
ag18
(g42
S'\x9b|\xab\xbfh\xb4\xe5?'
p1353
tp1354
Rp1355
ag18
(g42
S'\xcd=\x8c\x8d\xbf+\xe5?'
p1356
tp1357
Rp1358
ag18
(g42
S'o\xc4*\xd8\x97o\xe5?'
p1359
tp1360
Rp1361
ag18
(g42
S'\xdd\x94\x92S\xc3\xaf\xe5?'
p1362
tp1363
Rp1364
ag18
(g42
S'Z\x10\xfd\x80\x82L\xe5?'
p1365
tp1366
Rp1367
asg1012
(lp1368
I0
aI0
ag18
(g42
S'!\xdc\xee\xa3\xcf \xe8?'
p1369
tp1370
Rp1371
ag18
(g42
S'\xa1v%jW\xa2\xe6?'
p1372
tp1373
Rp1374
ag18
(g42
S'\xa68g\x83 R\xe4?'
p1375
tp1376
Rp1377
ag18
(g42
S'\xf318\x1f\x83\xf3\xe1?'
p1378
tp1379
Rp1380
ag18
(g42
S'\xd28\xa7A\xcc8\xe5?'
p1381
tp1382
Rp1383
ag18
(g42
S'\x16\x04\x0e\x93\x91?\xe4?'
p1384
tp1385
Rp1386
ag18
(g42
S'\x01X\x97\x80k\xa0\xe5?'
p1387
tp1388
Rp1389
ag18
(g42
S'\xb1D\xaf\xaa\x90i\xe7?'
p1390
tp1391
Rp1392
ag18
(g42
S'\xef\x89R\xa8\x1c\xac\xe6?'
p1393
tp1394
Rp1395
ag18
(g42
S'\xbdAH,\x0c5\xe6?'
p1396
tp1397
Rp1398
ag18
(g42
S'zU\xbe\x87tu\xe5?'
p1399
tp1400
Rp1401
ag18
(g42
S"\x88\x8a\xa9U\x82'\xe5?"
p1402
tp1403
Rp1404
ag18
(g42
S'\x93\x02\r4\xfb\xd6\xe4?'
p1405
tp1406
Rp1407
ag18
(g42
S'z\xbb>\xfd\xc1;\xe5?'
p1408
tp1409
Rp1410
ag18
(g42
S'\xe2\xf8\x1d!/\xff\xe4?'
p1411
tp1412
Rp1413
ag18
(g42
S'nk\x0f!"\xa0\xe4?'
p1414
tp1415
Rp1416
ag18
(g42
S'\x11\xc5\x1d,\xd2J\xe4?'
p1417
tp1418
Rp1419
ag18
(g42
S'\xd4\x90GI\x1f\xa5\xe4?'
p1420
tp1421
Rp1422
ag18
(g42
S'\xf6\xf0 \xc2\xdd\xd6\xe4?'
p1423
tp1424
Rp1425
ag18
(g42
S'\xe7\xc6C_,\xd3\xe4?'
p1426
tp1427
Rp1428
ag18
(g42
S'5\xb1\xd7\x05\x9do\xe4?'
p1429
tp1430
Rp1431
ag18
(g42
S'\x90\xb1XbNx\xe5?'
p1432
tp1433
Rp1434
ag18
(g42
S"z\xbc\xcfK$'\xe4?"
p1435
tp1436
Rp1437
ag18
(g42
S'\xe22\x89q0L\xe4?'
p1438
tp1439
Rp1440
ag18
(g42
S'_\xb1\x0bwY\xa5\xe4?'
p1441
tp1442
Rp1443
ag18
(g42
S'\xdeqt\xc4\xb9\xd8\xe3?'
p1444
tp1445
Rp1446
ag18
(g42
S'\x9b\x9e\xb9\xb1\x95\xd5\xe4?'
p1447
tp1448
Rp1449
ag18
(g42
S'\xf3+j\xae\x94\xb2\xe3?'
p1450
tp1451
Rp1452
ag18
(g42
S'\x19\xc5;\xe9?\x01\xe5?'
p1453
tp1454
Rp1455
ag18
(g42
S'\xbe\x83\xdd\x04\xc8\x11\xe4?'
p1456
tp1457
Rp1458
ag18
(g42
S'\xd3\x02&\xf2HZ\xe4?'
p1459
tp1460
Rp1461
ag18
(g42
S'\x11\x87\xfa\xa3\xbfw\xe4?'
p1462
tp1463
Rp1464
ag18
(g42
S'W\x9a\xf4\xdc\xc4\xec\xe3?'
p1465
tp1466
Rp1467
ag18
(g42
S'*\x9d\xd9};2\xe4?'
p1468
tp1469
Rp1470
ag18
(g42
S'\xba\xbe?u\xa5\x1c\xe4?'
p1471
tp1472
Rp1473
ag18
(g42
S'\xe2\x81\x9aTZs\xe4?'
p1474
tp1475
Rp1476
ag18
(g42
S'N\x85\xc8\x93\xb3V\xe5?'
p1477
tp1478
Rp1479
ag18
(g42
S'\xec\xac\x88\xa4[t\xe4?'
p1480
tp1481
Rp1482
ag18
(g42
S'\x1c%\x9e\x15\x03\r\xe5?'
p1483
tp1484
Rp1485
asa(dp1486
g770
(lp1487
I0
aI0
aF0.6296296296296297
aF0.6296296296296297
aF0.5925925925925926
aF0.6444444444444445
aF0.6296296296296297
aF0.6481481481481481
aF0.5333333333333332
aF0.5703703703703703
aF0.5666666666666667
aF0.5962962962962963
aF0.5962962962962963
aF0.5777777777777777
aF0.5777777777777777
aF0.6222222222222223
aF0.6333333333333334
aF0.6370370370370371
aF0.6222222222222222
aF0.6592592592592593
aF0.6703703703703703
aF0.6481481481481481
aF0.6370370370370371
aF0.6592592592592593
aF0.674074074074074
aF0.6481481481481481
aF0.6666666666666667
aF0.6962962962962963
aF0.6481481481481481
aF0.6481481481481481
aF0.6333333333333333
aF0.6703703703703704
aF0.6444444444444445
aF0.6222222222222222
aF0.6481481481481481
aF0.6370370370370371
aF0.6444444444444445
aF0.6444444444444445
aF0.6777777777777778
aF0.6407407407407406
aF0.6888888888888889
asg891
(lp1488
I0
aI0
aF0.6799999999999999
aF0.7999999999999999
aF0.5600000000000002
aF0.6799999999999999
aF0.6759999999999999
aF0.7479999999999999
aF0.6839999999999999
aF0.7
aF0.6719999999999999
aF0.628
aF0.6199999999999999
aF0.6399999999999999
aF0.5960000000000001
aF0.6039999999999999
aF0.5560000000000002
aF0.576
aF0.6279999999999999
aF0.6079999999999999
aF0.6279999999999999
aF0.608
aF0.628
aF0.62
aF0.6399999999999999
aF0.6399999999999999
aF0.6319999999999999
aF0.6159999999999999
aF0.6279999999999999
aF0.6639999999999999
aF0.6319999999999999
aF0.6399999999999999
aF0.6239999999999999
aF0.6359999999999999
aF0.648
aF0.6439999999999999
aF0.6199999999999999
aF0.6239999999999999
aF0.6479999999999999
aF0.6519999999999999
aF0.6479999999999999
asg1012
(lp1489
I0
aI0
aF0.6666666666666667
aF0.6666666666666667
aF0.611111111111111
aF0.5
aF0.611111111111111
aF0.5555555555555555
aF0.5888888888888888
aF0.6444444444444444
aF0.6444444444444444
aF0.6277777777777779
aF0.6277777777777778
aF0.6222222222222221
aF0.6166666666666666
aF0.6277777777777777
aF0.6333333333333334
aF0.6277777777777779
aF0.6111111111111112
aF0.6000000000000001
aF0.6166666666666666
aF0.6055555555555557
aF0.6
aF0.638888888888889
aF0.6055555555555555
aF0.6
aF0.5833333333333333
aF0.5944444444444444
aF0.611111111111111
aF0.6111111111111112
aF0.6277777777777778
aF0.5944444444444444
aF0.5833333333333333
aF0.6166666666666668
aF0.6055555555555555
aF0.5777777777777777
aF0.5722222222222222
aF0.5944444444444443
aF0.5944444444444444
aF0.6
aF0.6
asa(dp1490
g770
(lp1491
I0
aI0
aF0.6153846153846153
aF0.5769230769230768
aF0.6153846153846153
aF0.6423076923076925
aF0.6153846153846153
aF0.6
aF0.5615384615384615
aF0.5769230769230769
aF0.5730769230769229
aF0.6461538461538463
aF0.5769230769230769
aF0.6038461538461537
aF0.6230769230769231
aF0.6076923076923076
aF0.6076923076923076
aF0.5846153846153846
aF0.5923076923076923
aF0.5807692307692307
aF0.5961538461538461
aF0.5923076923076922
aF0.6115384615384615
aF0.6
aF0.5692307692307692
aF0.5961538461538461
aF0.6
aF0.6115384615384615
aF0.5846153846153845
aF0.6192307692307694
aF0.5961538461538461
aF0.5769230769230769
aF0.6038461538461537
aF0.6038461538461538
aF0.6115384615384615
aF0.6000000000000001
aF0.5846153846153845
aF0.5923076923076922
aF0.623076923076923
aF0.6153846153846152
aF0.5807692307692307
asg891
(lp1492
I0
aI0
aF0.6923076923076924
aF0.6153846153846153
aF0.8076923076923077
aF0.6923076923076924
aF0.6653846153846155
aF0.7153846153846154
aF0.7153846153846155
aF0.7307692307692308
aF0.7846153846153845
aF0.7038461538461538
aF0.7846153846153847
aF0.8153846153846154
aF0.8153846153846154
aF0.7538461538461539
aF0.773076923076923
aF0.7961538461538461
aF0.7346153846153847
aF0.7538461538461538
aF0.8076923076923077
aF0.7307692307692308
aF0.769230769230769
aF0.7576923076923077
aF0.75
aF0.7346153846153847
aF0.7384615384615385
aF0.7346153846153847
aF0.7076923076923077
aF0.7423076923076923
aF0.7115384615384615
aF0.7230769230769232
aF0.6846153846153846
aF0.7384615384615385
aF0.7153846153846154
aF0.6692307692307692
aF0.7384615384615385
aF0.7000000000000001
aF0.6923076923076923
aF0.7038461538461539
aF0.6846153846153846
asg1012
(lp1493
I0
aI0
aF0.826086956521739
aF0.7391304347826085
aF0.6521739130434784
aF0.6086956521739131
aF0.7043478260869565
aF0.6956521739130433
aF0.7478260869565216
aF0.8043478260869564
aF0.7608695652173914
aF0.7478260869565219
aF0.7043478260869565
aF0.6913043478260871
aF0.6782608695652175
aF0.691304347826087
aF0.673913043478261
aF0.6565217391304348
aF0.6521739130434782
aF0.682608695652174
aF0.6782608695652175
aF0.6869565217391305
aF0.6695652173913043
aF0.6956521739130433
aF0.6478260869565217
aF0.6608695652173913
aF0.6956521739130436
aF0.6391304347826087
aF0.6826086956521737
aF0.6173913043478262
aF0.6782608695652174
aF0.6521739130434783
aF0.6782608695652174
aF0.6565217391304348
aF0.6347826086956522
aF0.673913043478261
aF0.6739130434782608
aF0.673913043478261
aF0.7260869565217389
aF0.6695652173913043
aF0.7043478260869566
asa(dp1494
g21
(lp1495
F0.3538461538461537
aF0.35769230769230753
aF0.3769230769230769
aF0.376923076923077
aF0.38076923076923064
aF0.3846153846153847
aF0.3846153846153847
aF0.3846153846153847
aF0.3846153846153848
aF0.3884615384615385
aF0.3884615384615385
aF0.3884615384615385
aF0.39230769230769236
aF0.39230769230769236
aF0.3961538461538462
aF0.3961538461538463
aF0.3961538461538463
aF0.3999999999999999
aF0.4
aF0.4
aF0.4
aF0.40384615384615385
aF0.40384615384615385
aF0.40384615384615385
aF0.4076923076923077
aF0.4076923076923078
aF0.4076923076923078
aF0.41538461538461535
aF0.41538461538461546
aF0.41538461538461546
aF0.4192307692307693
aF0.4192307692307693
aF0.42307692307692313
aF0.42307692307692313
aF0.42307692307692313
aF0.42307692307692324
aF0.42692307692307707
aF0.4307692307692308
aF0.43846153846153846
asg25
(lp1496
F0.18461538461538463
aF0.18461538461538463
aF0.1923076923076923
aF0.1923076923076923
aF0.2038461538461539
aF0.21538461538461529
aF0.2153846153846155
aF0.226923076923077
aF0.23076923076923095
aF0.24230769230769234
aF0.24615384615384606
aF0.24615384615384617
aF0.25
aF0.25769230769230766
aF0.2615384615384615
aF0.2615384615384615
aF0.2615384615384615
aF0.26538461538461533
aF0.26538461538461533
aF0.26538461538461533
aF0.26923076923076916
aF0.26923076923076916
aF0.2769230769230768
aF0.2846153846153845
aF0.2846153846153846
aF0.2846153846153846
aF0.28846153846153855
aF0.29230769230769227
aF0.2961538461538461
aF0.2961538461538462
aF0.29999999999999993
aF0.3076923076923076
aF0.3076923076923076
aF0.3076923076923077
aF0.3153846153846154
aF0.3153846153846154
aF0.3307692307692308
aF0.33461538461538454
aF0.3846153846153847
asg29
(lp1497
F0.17391304347826098
aF0.19565217391304357
aF0.23913043478260865
aF0.25217391304347814
aF0.25217391304347836
aF0.26086956521739146
aF0.27391304347826106
aF0.29565217391304344
aF0.29565217391304355
aF0.29565217391304355
aF0.30434782608695643
aF0.30434782608695665
aF0.30434782608695665
aF0.3086956521739129
aF0.30869565217391304
aF0.31304347826086953
aF0.31739130434782603
aF0.31739130434782625
aF0.3217391304347825
aF0.3217391304347825
aF0.32173913043478264
aF0.32173913043478264
aF0.326086956521739
aF0.326086956521739
aF0.326086956521739
aF0.32608695652173925
aF0.33043478260869574
aF0.33043478260869574
aF0.33913043478260874
aF0.34347826086956523
aF0.34347826086956523
aF0.3478260869565216
aF0.34782608695652173
aF0.34782608695652184
aF0.35217391304347834
aF0.36086956521739133
aF0.3652173913043478
aF0.3826086956521738
aF0.3913043478260869
asa(dp1498
g21
(lp1499
F0.5962962962962963
aF0.6444444444444445
aF0.5777777777777777
aF0.6777777777777778
aF0.6481481481481481
aF0.5925925925925926
aF0.6296296296296297
aF0.6296296296296297
aF0.6407407407407406
aF0.6370370370370371
aF0.6481481481481481
aF0.6962962962962963
aF0.6222222222222223
aF0.6333333333333334
aF0.6222222222222222
aF0.5777777777777777
aF0.6444444444444445
aF0.6370370370370371
aF0.6481481481481481
aF0.6592592592592593
aF0.6666666666666667
aF0.6333333333333333
aF0.6481481481481481
aF0.6703703703703703
aF0.6222222222222222
aF0.6444444444444445
aF0.6481481481481481
aF0.6370370370370371
aF0.6444444444444445
aF0.6481481481481481
aF0.6592592592592593
aF0.6888888888888889
aF0.5703703703703703
aF0.5962962962962963
aF0.6703703703703704
aF0.6296296296296297
aF0.5666666666666667
aF0.674074074074074
aF0.5333333333333332
asg25
(lp1500
F0.5960000000000001
aF0.6399999999999999
aF0.5600000000000002
aF0.6279999999999999
aF0.576
aF0.6199999999999999
aF0.6719999999999999
aF0.5560000000000002
aF0.628
aF0.62
aF0.6039999999999999
aF0.6079999999999999
aF0.6399999999999999
aF0.6639999999999999
aF0.6199999999999999
aF0.6319999999999999
aF0.6359999999999999
aF0.6159999999999999
aF0.6279999999999999
aF0.6399999999999999
aF0.608
aF0.7
aF0.6399999999999999
aF0.6839999999999999
aF0.648
aF0.7479999999999999
aF0.6319999999999999
aF0.6279999999999999
aF0.6519999999999999
aF0.628
aF0.6239999999999999
aF0.6799999999999999
aF0.6799999999999999
aF0.6479999999999999
aF0.6239999999999999
aF0.6479999999999999
aF0.6439999999999999
aF0.6759999999999999
aF0.7999999999999999
asg29
(lp1501
F0.6666666666666667
aF0.6444444444444444
aF0.6444444444444444
aF0.6277777777777779
aF0.5888888888888888
aF0.6666666666666667
aF0.5944444444444444
aF0.6
aF0.611111111111111
aF0.6277777777777778
aF0.5833333333333333
aF0.5555555555555555
aF0.638888888888889
aF0.6222222222222221
aF0.6277777777777777
aF0.6055555555555557
aF0.6000000000000001
aF0.611111111111111
aF0.6166666666666666
aF0.6166666666666666
aF0.5833333333333333
aF0.6277777777777778
aF0.5777777777777777
aF0.5944444444444443
aF0.6333333333333334
aF0.5722222222222222
aF0.6
aF0.6
aF0.6
aF0.6166666666666668
aF0.6277777777777779
aF0.611111111111111
aF0.5944444444444444
aF0.6111111111111112
aF0.6055555555555555
aF0.5944444444444444
aF0.6055555555555555
aF0.6111111111111112
aF0.5
asaI3
a.