(lp0
S'CV'
p1
acnumpy.core.multiarray
_reconstruct
p2
(cnumpy
ndarray
p3
(I0
tp4
S'b'
p5
tp6
Rp7
(I1
(I39
tp8
cnumpy
dtype
p9
(S'i8'
p10
I0
I1
tp11
Rp12
(I3
S'<'
p13
NNNI-1
I-1
I0
tp14
bI00
S'\x02\x00\x00\x00\x00\x00\x00\x00\x03\x00\x00\x00\x00\x00\x00\x00\x04\x00\x00\x00\x00\x00\x00\x00\x05\x00\x00\x00\x00\x00\x00\x00\x06\x00\x00\x00\x00\x00\x00\x00\x07\x00\x00\x00\x00\x00\x00\x00\x08\x00\x00\x00\x00\x00\x00\x00\t\x00\x00\x00\x00\x00\x00\x00\n\x00\x00\x00\x00\x00\x00\x00\x0b\x00\x00\x00\x00\x00\x00\x00\x0c\x00\x00\x00\x00\x00\x00\x00\r\x00\x00\x00\x00\x00\x00\x00\x0e\x00\x00\x00\x00\x00\x00\x00\x0f\x00\x00\x00\x00\x00\x00\x00\x10\x00\x00\x00\x00\x00\x00\x00\x11\x00\x00\x00\x00\x00\x00\x00\x12\x00\x00\x00\x00\x00\x00\x00\x13\x00\x00\x00\x00\x00\x00\x00\x14\x00\x00\x00\x00\x00\x00\x00\x15\x00\x00\x00\x00\x00\x00\x00\x16\x00\x00\x00\x00\x00\x00\x00\x17\x00\x00\x00\x00\x00\x00\x00\x18\x00\x00\x00\x00\x00\x00\x00\x19\x00\x00\x00\x00\x00\x00\x00\x1a\x00\x00\x00\x00\x00\x00\x00\x1b\x00\x00\x00\x00\x00\x00\x00\x1c\x00\x00\x00\x00\x00\x00\x00\x1d\x00\x00\x00\x00\x00\x00\x00\x1e\x00\x00\x00\x00\x00\x00\x00\x1f\x00\x00\x00\x00\x00\x00\x00 \x00\x00\x00\x00\x00\x00\x00!\x00\x00\x00\x00\x00\x00\x00"\x00\x00\x00\x00\x00\x00\x00#\x00\x00\x00\x00\x00\x00\x00$\x00\x00\x00\x00\x00\x00\x00%\x00\x00\x00\x00\x00\x00\x00&\x00\x00\x00\x00\x00\x00\x00\'\x00\x00\x00\x00\x00\x00\x00(\x00\x00\x00\x00\x00\x00\x00'
p15
tp16
baI10
a(dp17
I10
(lp18
F0.25870646766169136
aF0.298507462686567
aF0.32736318407960174
aF0.33432835820895535
aF0.3363184079601991
aF0.3373134328358208
aF0.34029850746268664
aF0.34079601990049757
aF0.34328358208955223
aF0.3437810945273633
aF0.3437810945273633
aF0.34776119402985084
aF0.34925373134328364
aF0.3502487562189055
aF0.3512437810945275
aF0.3517412935323384
aF0.35223880597014934
aF0.35223880597014934
aF0.35422885572139284
aF0.35422885572139295
aF0.3552238805970148
aF0.35522388059701493
aF0.3562189054726369
aF0.3582089552238805
aF0.363681592039801
aF0.36467661691542286
aF0.36467661691542286
aF0.3651741293532338
aF0.36766169154228856
aF0.3701492537313431
aF0.37611940298507485
aF0.37661691542288556
aF0.3835820895522388
aF0.39004975124378094
aF0.392039800995025
aF0.3935323383084576
aF0.39601990049751246
aF0.40049751243781095
aF0.44776119402985093
asI5
(lp19
F0.25870646766169136
aF0.2736318407960199
aF0.3159203980099501
aF0.31691542288557206
aF0.3243781094527364
aF0.32587064676616917
aF0.32686567164179114
aF0.327860696517413
aF0.328855721393035
aF0.3333333333333335
aF0.3358208955223879
aF0.3393034825870648
aF0.3398009950248755
aF0.3398009950248756
aF0.34029850746268653
aF0.3412935323383084
aF0.34228855721393003
aF0.34477611940298514
aF0.34477611940298525
aF0.34626865671641793
aF0.34676616915422875
aF0.34676616915422886
aF0.3472636815920398
aF0.3487562189054727
aF0.3502487562189053
aF0.3507462686567163
aF0.35124378109452736
aF0.353233830845771
aF0.35373134328358213
aF0.3547263681592041
aF0.3562189054726369
aF0.3582089552238805
aF0.36119402985074633
aF0.3621890547263682
aF0.36567164179104483
aF0.3726368159203982
aF0.3756218905472637
aF0.3875621890547264
aF0.44776119402985093
asI7
(lp20
F0.22388059701492513
aF0.2935323383084577
aF0.31990049751243776
aF0.3238805970149252
aF0.328855721393035
aF0.33482587064676617
aF0.335323383084577
aF0.33631840796019896
aF0.33681592039801
aF0.34029850746268653
aF0.34029850746268653
aF0.34079601990049757
aF0.344776119402985
aF0.34477611940298514
aF0.34527363184079607
aF0.345771144278607
aF0.34626865671641793
aF0.34626865671641804
aF0.34676616915422875
aF0.346766169154229
aF0.34776119402985073
aF0.3487562189054729
aF0.3492537313432835
aF0.3507462686567163
aF0.35074626865671654
aF0.35522388059701493
aF0.35820895522388063
aF0.3592039800995027
aF0.36019900497512436
aF0.36467661691542286
aF0.36467661691542297
aF0.3666666666666666
aF0.36915422885572136
aF0.3766169154228858
aF0.3786069651741293
aF0.3905472636815921
aF0.3950248756218906
aF0.40049751243781095
aF0.44776119402985093
asa(dp21
I10
(lp22
F0.5648148148148147
aF0.6388888888888887
aF0.6981481481481482
aF0.6481481481481481
aF0.6611111111111111
aF0.6592592592592594
aF0.7268518518518516
aF0.7407407407407406
aF0.687037037037037
aF0.6268518518518518
aF0.6407407407407409
aF0.684259259259259
aF0.6768518518518518
aF0.6796296296296295
aF0.6490740740740741
aF0.701851851851852
aF0.6407407407407406
aF0.662037037037037
aF0.6462962962962965
aF0.700925925925926
aF0.6277777777777779
aF0.6509259259259258
aF0.710185185185185
aF0.7166666666666666
aF0.6564814814814813
aF0.6499999999999999
aF0.6527777777777778
aF0.6592592592592594
aF0.6425925925925926
aF0.6259259259259259
aF0.7203703703703703
aF0.6962962962962962
aF0.7027777777777777
aF0.7564814814814814
aF0.7657407407407408
aF0.7518518518518519
aF0.7268518518518519
aF0.8120370370370372
aF0.8148148148148151
asI5
(lp23
F0.5740740740740741
aF0.6018518518518519
aF0.6907407407407405
aF0.6231481481481481
aF0.7046296296296295
aF0.6527777777777779
aF0.6157407407407408
aF0.6907407407407405
aF0.6962962962962963
aF0.6444444444444445
aF0.661111111111111
aF0.6925925925925926
aF0.7074074074074072
aF0.7027777777777778
aF0.6388888888888888
aF0.6324074074074074
aF0.6250000000000001
aF0.6342592592592592
aF0.6759259259259259
aF0.6157407407407407
aF0.6574074074074072
aF0.6379629629629628
aF0.6731481481481482
aF0.6499999999999999
aF0.6287037037037038
aF0.649074074074074
aF0.7120370370370369
aF0.636111111111111
aF0.6240740740740739
aF0.7092592592592591
aF0.7305555555555556
aF0.7824074074074076
aF0.6694444444444444
aF0.6611111111111112
aF0.6916666666666665
aF0.7101851851851851
aF0.7407407407407406
aF0.7592592592592593
aF0.8148148148148151
asI7
(lp24
F0.537037037037037
aF0.6388888888888887
aF0.6972222222222222
aF0.6638888888888889
aF0.7175925925925923
aF0.6944444444444443
aF0.638888888888889
aF0.6287037037037038
aF0.6546296296296297
aF0.6537037037037035
aF0.6842592592592592
aF0.7453703703703701
aF0.6342592592592592
aF0.7074074074074075
aF0.6583333333333333
aF0.6425925925925925
aF0.6796296296296297
aF0.7
aF0.6685185185185184
aF0.7120370370370368
aF0.6425925925925924
aF0.6148148148148148
aF0.6370370370370371
aF0.6629629629629629
aF0.6648148148148147
aF0.6407407407407407
aF0.672222222222222
aF0.7046296296296296
aF0.6481481481481481
aF0.6333333333333332
aF0.7287037037037039
aF0.6416666666666665
aF0.6518518518518519
aF0.7009259259259258
aF0.7398148148148149
aF0.7657407407407408
aF0.7231481481481483
aF0.805555555555556
aF0.8148148148148151
asa(dp25
I10
(lp26
I0
aI0
aF0.8148148148148151
aF0.6388888888888887
aF0.8120370370370372
aF0.7407407407407406
aF0.5648148148148147
aF0.6962962962962962
aF0.7657407407407408
aF0.7027777777777777
aF0.7268518518518519
aF0.7518518518518519
aF0.7564814814814814
aF0.7203703703703703
aF0.7268518518518516
aF0.7166666666666666
aF0.701851851851852
aF0.6981481481481482
aF0.710185185185185
aF0.700925925925926
aF0.6768518518518518
aF0.6796296296296295
aF0.684259259259259
aF0.6592592592592594
aF0.687037037037037
aF0.6611111111111111
aF0.662037037037037
aF0.6407407407407409
aF0.6481481481481481
aF0.6499999999999999
aF0.6509259259259258
aF0.6592592592592594
aF0.6490740740740741
aF0.6564814814814813
aF0.6462962962962965
aF0.6527777777777778
aF0.6425925925925926
aF0.6407407407407406
aF0.6277777777777779
aF0.6268518518518518
aF0.6259259259259259
asI5
(lp27
I0
aI0
aF0.8148148148148151
aF0.6018518518518519
aF0.7824074074074076
aF0.7407407407407406
aF0.5740740740740741
aF0.7074074074074072
aF0.7592592592592593
aF0.6916666666666665
aF0.7101851851851851
aF0.7305555555555556
aF0.7120370370370369
aF0.7092592592592591
aF0.7046296296296295
aF0.6962962962962963
aF0.6925925925925926
aF0.6907407407407405
aF0.7027777777777778
aF0.6907407407407405
aF0.6574074074074072
aF0.6731481481481482
aF0.661111111111111
aF0.6694444444444444
aF0.6759259259259259
aF0.6527777777777779
aF0.6499999999999999
aF0.6250000000000001
aF0.6444444444444445
aF0.6324074074074074
aF0.6342592592592592
aF0.6388888888888888
aF0.6157407407407408
aF0.649074074074074
aF0.636111111111111
aF0.6611111111111112
aF0.6240740740740739
aF0.6379629629629628
aF0.6157407407407407
aF0.6231481481481481
aF0.6287037037037038
asI7
(lp28
I0
aI0
aF0.8148148148148151
aF0.6388888888888887
aF0.805555555555556
aF0.7453703703703701
aF0.537037037037037
aF0.6638888888888889
aF0.7657407407407408
aF0.7009259259259258
aF0.7231481481481483
aF0.7398148148148149
aF0.7287037037037039
aF0.7046296296296296
aF0.7175925925925923
aF0.7074074074074075
aF0.7120370370370368
aF0.6972222222222222
aF0.7
aF0.6944444444444443
aF0.672222222222222
aF0.6842592592592592
aF0.6629629629629629
aF0.6583333333333333
aF0.6796296296296297
aF0.6685185185185184
aF0.6648148148148147
aF0.638888888888889
aF0.6537037037037035
aF0.6481481481481481
aF0.6425925925925924
aF0.6546296296296297
aF0.6342592592592592
aF0.6370370370370371
aF0.6407407407407407
aF0.6518518518518519
aF0.6416666666666665
aF0.6425925925925925
aF0.6148148148148148
aF0.6287037037037038
aF0.6333333333333332
asa(dp29
I10
(lp30
I0
aI0
aF0.5522388059701491
aF0.701492537313433
aF0.599502487562189
aF0.6592039800995024
aF0.7412935323383086
aF0.6233830845771144
aF0.607960199004975
aF0.6164179104477612
aF0.6039800995024875
aF0.6064676616915424
aF0.6099502487562191
aF0.6238805970149252
aF0.6597014925373134
aF0.6417910447761195
aF0.6482587064676616
aF0.6726368159203983
aF0.6437810945273631
aF0.645771144278607
aF0.6507462686567164
aF0.6497512437810945
aF0.6522388059701492
aF0.6348258706467662
aF0.6567164179104478
aF0.6636815920398009
aF0.6477611940298507
aF0.6562189054726367
aF0.6656716417910447
aF0.6353233830845771
aF0.6447761194029851
aF0.6626865671641792
aF0.6487562189054725
aF0.636318407960199
aF0.6457711442786072
aF0.6353233830845771
aF0.6323383084577114
aF0.6477611940298507
aF0.6447761194029852
aF0.6562189054726367
aF0.6298507462686569
asI5
(lp31
I0
aI0
aF0.5522388059701491
aF0.7263681592039801
aF0.6417910447761195
aF0.6243781094527363
aF0.7412935323383086
aF0.6601990049751245
aF0.6124378109452736
aF0.6343283582089552
aF0.6273631840796018
aF0.6437810945273631
aF0.6487562189054726
aF0.6452736318407959
aF0.6756218905472636
aF0.671144278606965
aF0.6606965174129352
aF0.6840796019900499
aF0.6601990049751244
aF0.672139303482587
aF0.6532338308457712
aF0.6527363184079602
aF0.6641791044776121
aF0.6388059701492537
aF0.6552238805970148
aF0.6741293532338308
aF0.6512437810945273
aF0.65771144278607
aF0.6666666666666665
aF0.6587064676616916
aF0.6552238805970149
aF0.6597014925373135
aF0.6731343283582089
aF0.6492537313432837
aF0.646766169154229
aF0.6378109452736318
aF0.6462686567164179
aF0.6532338308457711
aF0.6537313432835821
aF0.6830845771144279
aF0.6497512437810947
asI7
(lp32
I0
aI0
aF0.5522388059701491
aF0.7064676616915423
aF0.599502487562189
aF0.6592039800995024
aF0.7761194029850749
aF0.6761194029850748
aF0.6094527363184079
aF0.6233830845771142
aF0.6049751243781094
aF0.6213930348258707
aF0.635323383084577
aF0.6407960199004973
aF0.671144278606965
aF0.6552238805970149
aF0.653233830845771
aF0.6800995024875622
aF0.653731343283582
aF0.6651741293532338
aF0.6417910447761194
aF0.6597014925373135
aF0.6492537313432837
aF0.6547263681592039
aF0.6537313432835821
aF0.6532338308457712
aF0.6492537313432835
aF0.664676616915423
aF0.6597014925373135
aF0.6398009950248756
aF0.6522388059701493
aF0.66318407960199
aF0.655223880597015
aF0.6507462686567165
aF0.6447761194029851
aF0.6308457711442786
aF0.6333333333333334
aF0.654228855721393
aF0.6512437810945271
aF0.663681592039801
aF0.6353233830845771
asa(dp33
I10
(lp34
I0
aI0
aF0.8417283950617281
aF0.6454320987654323
aF0.8315555555555558
aF0.7585185185185186
aF0.6424691358024691
aF0.7387654320987653
aF0.7891604938271602
aF0.7066419753086421
aF0.7244938271604936
aF0.7577777777777779
aF0.7658024691358026
aF0.7410123456790123
aF0.7574320987654323
aF0.739037037037037
aF0.7300000000000001
aF0.7332098765432097
aF0.7430864197530862
aF0.7232345679012346
aF0.7027901234567902
aF0.7119259259259259
aF0.7036049382716052
aF0.6800740740740742
aF0.714716049382716
aF0.6823456790123458
aF0.6885432098765432
aF0.6781234567901235
aF0.6981481481481482
aF0.6841975308641974
aF0.6774320987654321
aF0.6922222222222222
aF0.6929135802469137
aF0.6729629629629631
aF0.6687654320987654
aF0.6761728395061728
aF0.6579012345679013
aF0.6605432098765432
aF0.6539506172839505
aF0.6484938271604939
aF0.6424444444444444
asI5
(lp35
I0
aI0
aF0.8417283950617281
aF0.6824691358024694
aF0.8288888888888892
aF0.7585185185185186
aF0.6548148148148148
aF0.7654320987654323
aF0.7859753086419752
aF0.7137283950617284
aF0.7357777777777778
aF0.7522222222222222
aF0.7458518518518519
aF0.7394567901234567
aF0.7475802469135804
aF0.7365432098765434
aF0.7251851851851853
aF0.7339259259259258
aF0.7448148148148147
aF0.7297037037037037
aF0.6936296296296296
aF0.709679012345679
aF0.6951851851851852
aF0.6949629629629631
aF0.7092592592592593
aF0.6916790123456789
aF0.6767160493827159
aF0.6608641975308642
aF0.6853333333333332
aF0.6705185185185186
aF0.666814814814815
aF0.6720740740740742
aF0.6676296296296297
aF0.679851851851852
aF0.6659012345679012
aF0.6820246913580247
aF0.6509135802469135
aF0.6621975308641976
aF0.6456296296296298
aF0.6535308641975309
aF0.6638271604938272
asI7
(lp36
I0
aI0
aF0.8417283950617281
aF0.6454320987654323
aF0.8222222222222226
aF0.7585185185185186
aF0.605432098765432
aF0.6962469135802469
aF0.7891604938271602
aF0.7137283950617285
aF0.7219259259259257
aF0.7556296296296295
aF0.7557283950617284
aF0.7402716049382715
aF0.750567901234568
aF0.7358518518518519
aF0.7283703703703703
aF0.7269382716049381
aF0.7383456790123456
aF0.7215802469135802
aF0.6982469135802469
aF0.7145925925925926
aF0.6976296296296296
aF0.6763703703703705
aF0.7087407407407408
aF0.6899506172839508
aF0.6888395061728396
aF0.6692839506172841
aF0.6984691358024692
aF0.6895308641975308
aF0.6788641975308641
aF0.6907654320987653
aF0.6709135802469137
aF0.6592839506172841
aF0.6666913580246911
aF0.6769876543209876
aF0.6651851851851851
aF0.6602222222222222
aF0.6403703703703704
aF0.6640246913580247
aF0.6594074074074073
asa(dp37
I10
(lp38
I0
aI0
aF0.5797101449275364
aF0.8411371237458195
aF0.6212374581939799
aF0.6454849498327759
aF0.7513935340022299
aF0.6020066889632107
aF0.6303790412486063
aF0.6457079152731328
aF0.6526755852842808
aF0.6394091415830546
aF0.6657748049052397
aF0.6603121516164995
aF0.6707357859531772
aF0.6467112597547381
aF0.6545707915273131
aF0.6858416945373466
aF0.6873467112597548
aF0.6712374581939798
aF0.6814938684503903
aF0.6750836120401338
aF0.6634336677814939
aF0.6773132664437012
aF0.6838907469342251
aF0.7003344481605348
aF0.679933110367893
aF0.6866778149386845
aF0.6773690078037904
aF0.6740245261984392
aF0.6765328874024525
aF0.6806020066889631
aF0.6560758082497211
aF0.671571906354515
aF0.6743589743589743
aF0.6596989966555181
aF0.6662764771460421
aF0.6768673355629876
aF0.673076923076923
aF0.6749721293199553
aF0.6591415830546266
asI5
(lp39
I0
aI0
aF0.5797101449275364
aF0.7413600891861766
aF0.6148272017837235
aF0.616499442586399
aF0.7513935340022299
aF0.617391304347826
aF0.6392419175027869
aF0.641360089186176
aF0.6385172798216275
aF0.6485507246376813
aF0.6635451505016722
aF0.6585284280936455
aF0.6744147157190634
aF0.666109253065775
aF0.656020066889632
aF0.6890189520624304
aF0.6721850613154959
aF0.6790969899665551
aF0.6676700111482722
aF0.6657190635451505
aF0.6755852842809363
aF0.668004459308807
aF0.6726309921962098
aF0.6923076923076921
aF0.6704570791527313
aF0.6832775919732441
aF0.6680602006688962
aF0.6995540691192866
aF0.6763656633221852
aF0.6759197324414716
aF0.660200668896321
aF0.6738015607580824
aF0.6483277591973243
aF0.6601449275362318
aF0.6814938684503903
aF0.6710702341137122
aF0.6748049052396878
aF0.6874581939799331
aF0.6651059085841695
asI7
(lp40
I0
aI0
aF0.5797101449275364
aF0.8411371237458195
aF0.6212374581939799
aF0.6454849498327759
aF0.8026755852842811
aF0.6870122630992197
aF0.6384057971014491
aF0.6490523968784838
aF0.6408026755852843
aF0.6511148272017838
aF0.6683389074693424
aF0.6720178372352286
aF0.6763656633221851
aF0.6666109253065776
aF0.6589186176142697
aF0.6980490523968784
aF0.6868450390189521
aF0.6784838350055741
aF0.6681716833890747
aF0.6745819397993311
aF0.6637123745819397
aF0.6837235228539577
aF0.6795429208472686
aF0.6804347826086956
aF0.671293199554069
aF0.6900222965440357
aF0.6762541806020066
aF0.6753065774804905
aF0.6842251950947602
aF0.6769230769230768
aF0.6612040133779262
aF0.678149386845039
aF0.6566889632107021
aF0.6505574136008918
aF0.664994425863991
aF0.6824972129319954
aF0.6743589743589742
aF0.6748049052396877
aF0.6481047937569676
asa(dp41
I10
(lp42
F0.1588628762541805
aF0.24860646599777014
aF0.2996655518394652
aF0.3126532887402452
aF0.3133221850613155
aF0.31415830546265344
aF0.31610925306577486
aF0.3185061315496097
aF0.3193979933110369
aF0.32006688963210705
aF0.3226309921962096
aF0.32268673355629884
aF0.3231326644370124
aF0.32346711259754746
aF0.3249163879598662
aF0.3250278706800447
aF0.3256410256410257
aF0.3259754738015608
aF0.326923076923077
aF0.328428093645485
aF0.32876254180602016
aF0.3292642140468228
aF0.3337235228539579
aF0.33422519509476034
aF0.33656633221850607
aF0.3396878483835005
aF0.3403010033444819
aF0.34085841694537344
aF0.3439241917502789
aF0.3454292084726869
aF0.3473244147157192
aF0.3532887402452619
aF0.35429208472686724
aF0.35451505016722407
aF0.3605908584169454
aF0.36962095875139367
aF0.3787625418060201
aF0.39799331103678925
aF0.42028985507246364
asI5
(lp43
F0.24860646599777014
aF0.2586399108138234
aF0.30044593088071336
aF0.30769230769230793
aF0.31098104793756964
aF0.31254180602006687
aF0.3167224080267559
aF0.3185061315496097
aF0.3209030100334449
aF0.3236343366778148
aF0.32408026755852837
aF0.32441471571906366
aF0.32519509476031216
aF0.3255852842809366
aF0.3261984392419176
aF0.3273690078037902
aF0.32781493868450406
aF0.32892976588628775
aF0.32954292084726866
aF0.33193979933110385
aF0.33199554069119297
aF0.3323299888517278
aF0.33389074693422505
aF0.33428093645484946
aF0.3348940914158305
aF0.3364548494983278
aF0.339799331103679
aF0.3398550724637682
aF0.34147157190635447
aF0.343979933110368
aF0.35144927536231874
aF0.3516722408026757
aF0.35863991081382396
aF0.3607580824972131
aF0.36148272017837246
aF0.38260869565217404
aF0.383500557413601
aF0.3851727982162765
aF0.42028985507246364
asI7
(lp44
F0.1588628762541805
aF0.19732441471571893
aF0.3019509476031216
aF0.3099777034559643
aF0.3129877369007803
aF0.3131549609810479
aF0.3157748049052398
aF0.31627647714604235
aF0.3175027870680046
aF0.3195652173913044
aF0.32045707915273136
aF0.3215161649944259
aF0.321850613154961
aF0.32307692307692315
aF0.32363433667781494
aF0.3237458193979934
aF0.3246934225195095
aF0.3251950947603123
aF0.3254180602006689
aF0.3256410256410258
aF0.32798216276477143
aF0.32870680044593104
aF0.33166109253065756
aF0.33182831661092527
aF0.3333890746934224
aF0.33500557413600895
aF0.33628762541806034
aF0.3387959866220738
aF0.34108138238573027
aF0.34331103678929786
aF0.3488851727982162
aF0.3494425863991082
aF0.3509476031215162
aF0.3518952062430324
aF0.35451505016722407
aF0.35919732441471575
aF0.36159420289855093
aF0.3787625418060201
aF0.42028985507246364
asa(dp45
I10
(lp46
F0.6454320987654323
aF0.6424691358024691
aF0.6823456790123458
aF0.7430864197530862
aF0.6781234567901235
aF0.7332098765432097
aF0.714716049382716
aF0.7027901234567902
aF0.6922222222222222
aF0.6885432098765432
aF0.6981481481481482
aF0.6800740740740742
aF0.6605432098765432
aF0.6774320987654321
aF0.7119259259259259
aF0.6484938271604939
aF0.6687654320987654
aF0.6841975308641974
aF0.6539506172839505
aF0.6729629629629631
aF0.7232345679012346
aF0.7574320987654323
aF0.6579012345679013
aF0.7658024691358026
aF0.7036049382716052
aF0.7410123456790123
aF0.6761728395061728
aF0.6424444444444444
aF0.6929135802469137
aF0.7300000000000001
aF0.7244938271604936
aF0.739037037037037
aF0.7066419753086421
aF0.7585185185185186
aF0.7577777777777779
aF0.7891604938271602
aF0.8315555555555558
aF0.7387654320987653
aF0.8417283950617281
asI5
(lp47
F0.6548148148148148
aF0.6824691358024694
aF0.6705185185185186
aF0.6916790123456789
aF0.7339259259259258
aF0.6535308641975309
aF0.6608641975308642
aF0.6509135802469135
aF0.7297037037037037
aF0.666814814814815
aF0.6720740740740742
aF0.6951851851851852
aF0.6456296296296298
aF0.7475802469135804
aF0.679851851851852
aF0.7092592592592593
aF0.7448148148148147
aF0.6621975308641976
aF0.6767160493827159
aF0.6853333333333332
aF0.6949629629629631
aF0.6936296296296296
aF0.7365432098765434
aF0.709679012345679
aF0.6638271604938272
aF0.7458518518518519
aF0.6676296296296297
aF0.6820246913580247
aF0.7394567901234567
aF0.7251851851851853
aF0.7522222222222222
aF0.6659012345679012
aF0.7137283950617284
aF0.7859753086419752
aF0.7357777777777778
aF0.7654320987654323
aF0.7585185185185186
aF0.8288888888888892
aF0.8417283950617281
asI7
(lp48
F0.6454320987654323
aF0.605432098765432
aF0.7269382716049381
aF0.6692839506172841
aF0.6962469135802469
aF0.7383456790123456
aF0.6788641975308641
aF0.6763703703703705
aF0.6602222222222222
aF0.6899506172839508
aF0.7087407407407408
aF0.7215802469135802
aF0.6592839506172841
aF0.6907654320987653
aF0.750567901234568
aF0.6984691358024692
aF0.6895308641975308
aF0.6640246913580247
aF0.7145925925925926
aF0.6403703703703704
aF0.7402716049382715
aF0.6888395061728396
aF0.7557283950617284
aF0.6982469135802469
aF0.7358518518518519
aF0.6651851851851851
aF0.6976296296296296
aF0.6709135802469137
aF0.7283703703703703
aF0.6666913580246911
aF0.7556296296296295
aF0.6769876543209876
aF0.7137283950617285
aF0.6594074074074073
aF0.7585185185185186
aF0.7219259259259257
aF0.7891604938271602
aF0.8222222222222226
aF0.8417283950617281
asaI3
a(lp49
I5
aI7
aI10
aa.