(lp0
S'CV'
p1
acnumpy.core.multiarray
_reconstruct
p2
(cnumpy
ndarray
p3
(I0
tp4
S'b'
p5
tp6
Rp7
(I1
(I39
tp8
cnumpy
dtype
p9
(S'i8'
p10
I0
I1
tp11
Rp12
(I3
S'<'
p13
NNNI-1
I-1
I0
tp14
bI00
S'\x02\x00\x00\x00\x00\x00\x00\x00\x03\x00\x00\x00\x00\x00\x00\x00\x04\x00\x00\x00\x00\x00\x00\x00\x05\x00\x00\x00\x00\x00\x00\x00\x06\x00\x00\x00\x00\x00\x00\x00\x07\x00\x00\x00\x00\x00\x00\x00\x08\x00\x00\x00\x00\x00\x00\x00\t\x00\x00\x00\x00\x00\x00\x00\n\x00\x00\x00\x00\x00\x00\x00\x0b\x00\x00\x00\x00\x00\x00\x00\x0c\x00\x00\x00\x00\x00\x00\x00\r\x00\x00\x00\x00\x00\x00\x00\x0e\x00\x00\x00\x00\x00\x00\x00\x0f\x00\x00\x00\x00\x00\x00\x00\x10\x00\x00\x00\x00\x00\x00\x00\x11\x00\x00\x00\x00\x00\x00\x00\x12\x00\x00\x00\x00\x00\x00\x00\x13\x00\x00\x00\x00\x00\x00\x00\x14\x00\x00\x00\x00\x00\x00\x00\x15\x00\x00\x00\x00\x00\x00\x00\x16\x00\x00\x00\x00\x00\x00\x00\x17\x00\x00\x00\x00\x00\x00\x00\x18\x00\x00\x00\x00\x00\x00\x00\x19\x00\x00\x00\x00\x00\x00\x00\x1a\x00\x00\x00\x00\x00\x00\x00\x1b\x00\x00\x00\x00\x00\x00\x00\x1c\x00\x00\x00\x00\x00\x00\x00\x1d\x00\x00\x00\x00\x00\x00\x00\x1e\x00\x00\x00\x00\x00\x00\x00\x1f\x00\x00\x00\x00\x00\x00\x00 \x00\x00\x00\x00\x00\x00\x00!\x00\x00\x00\x00\x00\x00\x00"\x00\x00\x00\x00\x00\x00\x00#\x00\x00\x00\x00\x00\x00\x00$\x00\x00\x00\x00\x00\x00\x00%\x00\x00\x00\x00\x00\x00\x00&\x00\x00\x00\x00\x00\x00\x00\'\x00\x00\x00\x00\x00\x00\x00(\x00\x00\x00\x00\x00\x00\x00'
p15
tp16
baI1
a(dp17
I10
(lp18
F0.2786069651741294
aF0.2885572139303484
aF0.29850746268656714
aF0.3084577114427861
aF0.3084577114427861
aF0.31343283582089543
aF0.31840796019900497
aF0.31840796019900497
aF0.31840796019900497
aF0.3233830845771144
aF0.3233830845771144
aF0.32835820895522383
aF0.32835820895522394
aF0.3383084577114427
aF0.3383084577114427
aF0.34328358208955223
aF0.34328358208955223
aF0.3532338308457711
aF0.3532338308457712
aF0.35820895522388063
aF0.35820895522388063
aF0.3681592039800995
aF0.3681592039800995
aF0.3681592039800995
aF0.3681592039800995
aF0.37810945273631835
aF0.37810945273631835
aF0.37810945273631846
aF0.3830845771144279
aF0.3830845771144279
aF0.3880597014925373
aF0.39303482587064675
aF0.39303482587064675
aF0.3980099502487562
aF0.3980099502487562
aF0.3980099502487563
aF0.4029850746268657
aF0.4029850746268657
aF0.4477611940298508
asI5
(lp19
F0.2636815920398009
aF0.2736318407960199
aF0.2786069651741293
aF0.2786069651741294
aF0.28358208955223885
aF0.3034825870646767
aF0.3084577114427861
aF0.31343283582089543
aF0.3233830845771144
aF0.32835820895522383
aF0.33333333333333337
aF0.33333333333333337
aF0.33333333333333337
aF0.33333333333333337
aF0.3383084577114429
aF0.34328358208955223
aF0.34328358208955223
aF0.34825870646766166
aF0.34825870646766177
aF0.3532338308457711
aF0.35820895522388063
aF0.35820895522388063
aF0.35820895522388063
aF0.36318407960198995
aF0.36318407960198995
aF0.36318407960199006
aF0.3631840796019902
aF0.3681592039800995
aF0.3681592039800995
aF0.3681592039800995
aF0.3681592039800995
aF0.3731343283582089
aF0.37313432835820903
aF0.37810945273631835
aF0.37810945273631835
aF0.3830845771144279
aF0.38805970149253743
aF0.39303482587064675
aF0.4477611940298508
asI7
(lp20
F0.23383084577114432
aF0.2786069651741293
aF0.2935323383084577
aF0.3034825870646767
aF0.31840796019900497
aF0.31840796019900497
aF0.31840796019900497
aF0.3233830845771144
aF0.3233830845771144
aF0.3233830845771145
aF0.3233830845771145
aF0.33333333333333337
aF0.34328358208955223
aF0.34328358208955223
aF0.34328358208955223
aF0.34328358208955223
aF0.34328358208955223
aF0.34825870646766177
aF0.3532338308457711
aF0.3532338308457711
aF0.3532338308457711
aF0.3532338308457712
aF0.35820895522388063
aF0.35820895522388063
aF0.35820895522388063
aF0.36318407960198995
aF0.36318407960199006
aF0.3731343283582089
aF0.3731343283582089
aF0.37810945273631846
aF0.37810945273631846
aF0.38805970149253743
aF0.38805970149253743
aF0.39303482587064675
aF0.39303482587064675
aF0.39303482587064675
aF0.3980099502487562
aF0.40796019900497515
aF0.4477611940298508
asa(dp21
I10
(lp22
F0.6851851851851851
aF0.7407407407407408
aF0.638888888888889
aF0.6018518518518517
aF0.6481481481481481
aF0.6666666666666666
aF0.601851851851852
aF0.6481481481481481
aF0.7222222222222222
aF0.6203703703703703
aF0.6851851851851851
aF0.6944444444444445
aF0.5925925925925927
aF0.6759259259259259
aF0.7314814814814815
aF0.6388888888888888
aF0.6944444444444443
aF0.7314814814814815
aF0.6481481481481481
aF0.6666666666666666
aF0.7407407407407408
aF0.6666666666666666
aF0.6851851851851851
aF0.6944444444444445
aF0.7129629629629629
aF0.6666666666666666
aF0.6944444444444443
aF0.648148148148148
aF0.7222222222222222
aF0.7407407407407408
aF0.7407407407407408
aF0.6759259259259259
aF0.7592592592592592
aF0.6111111111111112
aF0.8148148148148149
aF0.7407407407407408
aF0.6574074074074074
aF0.7314814814814815
aF0.8148148148148149
asI5
(lp23
F0.5740740740740741
aF0.6018518518518517
aF0.6018518518518519
aF0.7129629629629629
aF0.638888888888889
aF0.7129629629629629
aF0.6388888888888888
aF0.5833333333333334
aF0.7129629629629629
aF0.6574074074074074
aF0.6481481481481481
aF0.6574074074074073
aF0.6666666666666666
aF0.6759259259259259
aF0.6388888888888888
aF0.6851851851851851
aF0.7129629629629629
aF0.6944444444444443
aF0.6574074074074073
aF0.6759259259259259
aF0.6296296296296297
aF0.7129629629629629
aF0.7870370370370371
aF0.6296296296296297
aF0.6944444444444445
aF0.6944444444444443
aF0.6944444444444443
aF0.601851851851852
aF0.6388888888888888
aF0.6574074074074073
aF0.6944444444444443
aF0.6203703703703703
aF0.6759259259259259
aF0.6666666666666666
aF0.7037037037037036
aF0.6851851851851851
aF0.75
aF0.7407407407407408
aF0.8148148148148149
asI7
(lp24
F0.5740740740740741
aF0.6759259259259259
aF0.638888888888889
aF0.5833333333333334
aF0.6296296296296297
aF0.6574074074074074
aF0.7685185185185185
aF0.5925925925925927
aF0.6574074074074073
aF0.6574074074074074
aF0.6759259259259259
aF0.6666666666666666
aF0.6574074074074073
aF0.6666666666666666
aF0.6759259259259259
aF0.7407407407407408
aF0.75
aF0.7407407407407408
aF0.5925925925925926
aF0.6481481481481483
aF0.6851851851851851
aF0.6759259259259259
aF0.6296296296296297
aF0.6851851851851851
aF0.75
aF0.611111111111111
aF0.6759259259259259
aF0.6574074074074074
aF0.7129629629629629
aF0.7129629629629629
aF0.7222222222222223
aF0.7222222222222222
aF0.7592592592592592
aF0.6574074074074074
aF0.7314814814814814
aF0.7314814814814815
aF0.8055555555555557
aF0.7222222222222222
aF0.8148148148148149
asa(dp25
I10
(lp26
I0
aI0
aF0.8148148148148149
aF0.638888888888889
aF0.8148148148148149
aF0.7407407407407408
aF0.6203703703703703
aF0.6944444444444443
aF0.7592592592592592
aF0.6851851851851851
aF0.7407407407407408
aF0.7314814814814815
aF0.7407407407407408
aF0.7129629629629629
aF0.7222222222222222
aF0.6851851851851851
aF0.7314814814814815
aF0.7407407407407408
aF0.7222222222222222
aF0.7314814814814815
aF0.6759259259259259
aF0.6666666666666666
aF0.6481481481481481
aF0.6666666666666666
aF0.6574074074074074
aF0.601851851851852
aF0.6944444444444445
aF0.648148148148148
aF0.6851851851851851
aF0.6666666666666666
aF0.6388888888888888
aF0.6944444444444445
aF0.6481481481481481
aF0.6759259259259259
aF0.7407407407407408
aF0.6481481481481481
aF0.5925925925925927
aF0.6666666666666666
aF0.6944444444444443
aF0.6018518518518517
aF0.6111111111111112
asI5
(lp27
I0
aI0
aF0.8148148148148149
aF0.6018518518518517
aF0.7870370370370371
aF0.7407407407407408
aF0.6018518518518519
aF0.7129629629629629
aF0.75
aF0.6944444444444443
aF0.6944444444444445
aF0.7037037037037036
aF0.6851851851851851
aF0.7129629629629629
aF0.7129629629629629
aF0.7129629629629629
aF0.6851851851851851
aF0.7129629629629629
aF0.6666666666666666
aF0.6944444444444443
aF0.6944444444444443
aF0.6574074074074073
aF0.6574074074074073
aF0.6666666666666666
aF0.601851851851852
aF0.6574074074074074
aF0.6574074074074073
aF0.6388888888888888
aF0.6944444444444443
aF0.638888888888889
aF0.6388888888888888
aF0.6481481481481481
aF0.6759259259259259
aF0.6296296296296297
aF0.6759259259259259
aF0.6388888888888888
aF0.5833333333333334
aF0.6296296296296297
aF0.6759259259259259
aF0.5740740740740741
aF0.6203703703703703
asI7
(lp28
I0
aI0
aF0.8148148148148149
aF0.638888888888889
aF0.8055555555555557
aF0.75
aF0.5740740740740741
aF0.6574074074074074
aF0.7592592592592592
aF0.6759259259259259
aF0.7222222222222222
aF0.7129629629629629
aF0.7314814814814814
aF0.7314814814814815
aF0.75
aF0.6759259259259259
aF0.7407407407407408
aF0.7685185185185185
aF0.7222222222222222
aF0.7407407407407408
aF0.6851851851851851
aF0.6759259259259259
aF0.6666666666666666
aF0.6574074074074074
aF0.5925925925925926
aF0.6574074074074074
aF0.7129629629629629
aF0.6574074074074073
aF0.6666666666666666
aF0.6759259259259259
aF0.6296296296296297
aF0.6759259259259259
aF0.6574074074074073
aF0.6574074074074074
aF0.7222222222222223
aF0.6296296296296297
aF0.5925925925925927
aF0.6481481481481483
aF0.6851851851851851
aF0.5833333333333334
aF0.611111111111111
asa(dp29
I10
(lp30
I0
aI0
aF0.5522388059701492
aF0.7014925373134329
aF0.6019900497512438
aF0.6417910447761194
aF0.6766169154228856
aF0.6218905472636816
aF0.6069651741293532
aF0.6318407960199005
aF0.6019900497512437
aF0.5970149253731343
aF0.6169154228855721
aF0.6318407960199005
aF0.681592039800995
aF0.7213930348258706
aF0.6467661691542289
aF0.7114427860696516
aF0.6169154228855721
aF0.6616915422885573
aF0.6616915422885573
aF0.6417910447761194
aF0.681592039800995
aF0.6318407960199005
aF0.5970149253731343
aF0.681592039800995
aF0.6318407960199005
aF0.6218905472636815
aF0.6766169154228856
aF0.6865671641791046
aF0.6567164179104478
aF0.6716417910447762
aF0.6467661691542288
aF0.6069651741293532
aF0.6119402985074627
aF0.6915422885572139
aF0.6716417910447761
aF0.6218905472636816
aF0.6567164179104478
aF0.6915422885572139
aF0.6019900497512438
asI5
(lp31
I0
aI0
aF0.5522388059701492
aF0.7263681592039801
aF0.6417910447761194
aF0.6069651741293532
aF0.7213930348258707
aF0.6567164179104478
aF0.6119402985074626
aF0.6368159203980099
aF0.63681592039801
aF0.6218905472636816
aF0.6169154228855721
aF0.6417910447761194
aF0.6965174129353233
aF0.7213930348258706
aF0.6567164179104478
aF0.6766169154228856
aF0.6666666666666666
aF0.6517412935323383
aF0.6318407960199005
aF0.6517412935323382
aF0.6318407960199005
aF0.6218905472636816
aF0.6318407960199005
aF0.6716417910447762
aF0.6666666666666666
aF0.6318407960199005
aF0.6368159203980098
aF0.7164179104477612
aF0.6616915422885571
aF0.6666666666666666
aF0.6666666666666666
aF0.63681592039801
aF0.626865671641791
aF0.6915422885572139
aF0.6865671641791046
aF0.6417910447761194
aF0.6467661691542289
aF0.7363184079601991
aF0.6268656716417911
asI7
(lp32
I0
aI0
aF0.5522388059701492
aF0.7064676616915423
aF0.6019900497512438
aF0.6417910447761194
aF0.7661691542288557
aF0.681592039800995
aF0.6119402985074626
aF0.6368159203980099
aF0.6119402985074626
aF0.6218905472636815
aF0.6069651741293532
aF0.6069651741293532
aF0.6567164179104478
aF0.7213930348258707
aF0.6567164179104478
aF0.681592039800995
aF0.5920398009950248
aF0.6517412935323382
aF0.6417910447761194
aF0.6467661691542288
aF0.6567164179104478
aF0.6268656716417911
aF0.6467661691542289
aF0.6766169154228855
aF0.6268656716417911
aF0.6567164179104478
aF0.6666666666666666
aF0.6766169154228855
aF0.6417910447761194
aF0.6567164179104478
aF0.6766169154228856
aF0.6069651741293532
aF0.6218905472636815
aF0.681592039800995
aF0.6766169154228856
aF0.6467661691542289
aF0.6467661691542289
aF0.6965174129353233
aF0.63681592039801
asa(dp33
I10
(lp34
I0
aI0
aF0.8417283950617285
aF0.6454320987654322
aF0.8355555555555555
aF0.7585185185185185
aF0.6980246913580247
aF0.7400000000000001
aF0.7893827160493827
aF0.7133333333333334
aF0.7204938271604938
aF0.7595061728395062
aF0.765679012345679
aF0.7133333333333334
aF0.802716049382716
aF0.7400000000000001
aF0.6987654320987655
aF0.8088888888888889
aF0.7286419753086419
aF0.7595061728395062
aF0.7019753086419754
aF0.7224691358024691
aF0.6444444444444444
aF0.7204938271604938
aF0.651604938271605
aF0.651604938271605
aF0.6896296296296297
aF0.6454320987654321
aF0.7039506172839506
aF0.6958024691358023
aF0.6844444444444445
aF0.677283950617284
aF0.6197530864197531
aF0.7019753086419754
aF0.7913580246913581
aF0.6454320987654322
aF0.6701234567901234
aF0.6948148148148148
aF0.7575308641975309
aF0.6587654320987654
aF0.6444444444444444
asI5
(lp35
I0
aI0
aF0.8417283950617285
aF0.6824691358024692
aF0.8355555555555555
aF0.7585185185185185
aF0.6918518518518518
aF0.7666666666666667
aF0.7708641975308641
aF0.7266666666666667
aF0.7328395061728394
aF0.7461728395061727
aF0.7533333333333334
aF0.7399999999999999
aF0.8212345679012345
aF0.7585185185185185
aF0.6854320987654322
aF0.7893827160493827
aF0.7162962962962963
aF0.714320987654321
aF0.6896296296296297
aF0.659753086419753
aF0.682469135802469
aF0.7081481481481481
aF0.6649382716049383
aF0.7071604938271605
aF0.6762962962962963
aF0.6269135802469136
aF0.7224691358024691
aF0.6824691358024692
aF0.677283950617284
aF0.6093827160493828
aF0.682469135802469
aF0.6814814814814815
aF0.7153086419753086
aF0.6392592592592593
aF0.6382716049382716
aF0.6948148148148148
aF0.7308641975308642
aF0.6392592592592593
aF0.6567901234567901
asI7
(lp36
I0
aI0
aF0.8417283950617285
aF0.6454320987654322
aF0.8222222222222223
aF0.7585185185185185
aF0.6609876543209877
aF0.6918518518518518
aF0.7893827160493827
aF0.7133333333333334
aF0.6948148148148148
aF0.7328395061728394
aF0.7533333333333334
aF0.7318518518518519
aF0.8160493827160494
aF0.7400000000000001
aF0.717283950617284
aF0.8212345679012345
aF0.717283950617284
aF0.7451851851851852
aF0.6977777777777777
aF0.7162962962962963
aF0.688641975308642
aF0.7071604938271605
aF0.6444444444444444
aF0.7019753086419754
aF0.7266666666666667
aF0.6958024691358023
aF0.6916049382716049
aF0.7019753086419754
aF0.6587654320987654
aF0.6649382716049383
aF0.6320987654320988
aF0.6587654320987654
aF0.7604938271604939
aF0.614567901234568
aF0.6701234567901234
aF0.6948148148148148
aF0.7441975308641976
aF0.6444444444444445
aF0.6558024691358025
asa(dp37
I10
(lp38
I0
aI0
aF0.5797101449275363
aF0.8411371237458193
aF0.6276477146042364
aF0.6198439241917503
aF0.7224080267558528
aF0.6020066889632106
aF0.6020066889632106
aF0.6438127090301003
aF0.6806020066889632
aF0.6293199554069119
aF0.6181716833890747
aF0.6583054626532888
aF0.7224080267558528
aF0.7079152731326644
aF0.6711259754738016
aF0.7207357859531772
aF0.6421404682274248
aF0.6822742474916388
aF0.6950947603121517
aF0.6967670011148271
aF0.6644370122630993
aF0.6198439241917503
aF0.6583054626532888
aF0.6984392419175028
aF0.6822742474916387
aF0.6822742474916388
aF0.6856187290969901
aF0.7112597547380156
aF0.6711259754738016
aF0.6950947603121517
aF0.6566332218506131
aF0.6421404682274248
aF0.6677814938684504
aF0.749721293199554
aF0.6583054626532888
aF0.6711259754738016
aF0.6694537346711259
aF0.7240802675585285
aF0.6566332218506131
asI5
(lp39
I0
aI0
aF0.5797101449275363
aF0.7413600891861761
aF0.6148272017837235
aF0.5908584169453734
aF0.7224080267558528
aF0.6148272017837235
aF0.6293199554069119
aF0.6583054626532888
aF0.653288740245262
aF0.6276477146042364
aF0.6181716833890747
aF0.6438127090301003
aF0.7224080267558528
aF0.7224080267558528
aF0.6711259754738016
aF0.6309921962095876
aF0.653288740245262
aF0.6822742474916388
aF0.6694537346711259
aF0.693422519509476
aF0.6644370122630993
aF0.6036789297658863
aF0.6583054626532888
aF0.70958751393534
aF0.7352285395763656
aF0.6677814938684504
aF0.6438127090301003
aF0.7240802675585285
aF0.6727982162764771
aF0.6822742474916388
aF0.6438127090301003
aF0.6404682274247492
aF0.6806020066889632
aF0.7463768115942028
aF0.6727982162764771
aF0.6839464882943144
aF0.6549609810479375
aF0.7753623188405797
aF0.6822742474916387
asI7
(lp40
I0
aI0
aF0.5797101449275363
aF0.8411371237458193
aF0.6276477146042364
aF0.6198439241917503
aF0.773690078037904
aF0.693422519509476
aF0.6020066889632106
aF0.6566332218506131
aF0.6806020066889632
aF0.6404682274247492
aF0.5891861761426979
aF0.6181716833890747
aF0.7352285395763656
aF0.6822742474916388
aF0.6711259754738016
aF0.6694537346711259
aF0.6164994425863991
aF0.6711259754738016
aF0.6950947603121517
aF0.6950947603121517
aF0.6644370122630993
aF0.6036789297658863
aF0.6727982162764771
aF0.70958751393534
aF0.6694537346711259
aF0.693422519509476
aF0.6950947603121517
aF0.6856187290969901
aF0.6727982162764771
aF0.6950947603121517
aF0.6694537346711259
aF0.6276477146042364
aF0.6806020066889632
aF0.7224080267558528
aF0.6583054626532888
aF0.6967670011148273
aF0.6566332218506131
aF0.6984392419175028
aF0.6549609810479375
asa(dp41
I10
(lp42
F0.15886287625418072
aF0.25027870680044595
aF0.2759197324414715
aF0.2775919732441472
aF0.2775919732441472
aF0.2792642140468228
aF0.2887402452619844
aF0.29208472686733555
aF0.30156075808249716
aF0.30323299888517286
aF0.30490523968784833
aF0.30490523968784833
aF0.31438127090300994
aF0.3177257525083612
aF0.3177257525083612
aF0.3177257525083613
aF0.3193979933110368
aF0.3288740245261984
aF0.3288740245261984
aF0.3288740245261984
aF0.3305462653288741
aF0.3322185061315496
aF0.33556298773690074
aF0.3416945373467112
aF0.3416945373467112
aF0.3416945373467112
aF0.3433667781493869
aF0.3433667781493869
aF0.35618729096989965
aF0.35785953177257523
aF0.35785953177257523
aF0.3706800445930881
aF0.3723522853957636
aF0.3801560758082497
aF0.3801560758082497
aF0.3818283166109253
aF0.39799331103678937
aF0.39799331103678937
aF0.42028985507246375
asI5
(lp43
F0.2246376811594203
aF0.25362318840579723
aF0.25863991081382387
aF0.2647714604236344
aF0.2759197324414715
aF0.2775919732441472
aF0.2775919732441472
aF0.2775919732441472
aF0.29041248606465997
aF0.306577480490524
aF0.31605351170568563
aF0.3177257525083612
aF0.3177257525083612
aF0.3177257525083613
aF0.3193979933110368
aF0.32720178372352293
aF0.32720178372352293
aF0.3288740245261984
aF0.3305462653288741
aF0.3322185061315496
aF0.33556298773690074
aF0.3416945373467112
aF0.3416945373467112
aF0.34503901895206246
aF0.34671125975473804
aF0.34671125975473804
aF0.35618729096989965
aF0.35618729096989965
aF0.35618729096989965
aF0.3595317725752508
aF0.3690078037904124
aF0.3706800445930881
aF0.3723522853957636
aF0.3818283166109253
aF0.3851727982162765
aF0.3851727982162765
aF0.39632107023411367
aF0.40914158305462656
aF0.42028985507246375
asI7
(lp44
F0.15886287625418072
aF0.22630992196209598
aF0.2647714604236344
aF0.2775919732441472
aF0.29041248606465997
aF0.30156075808249716
aF0.30323299888517274
aF0.30490523968784833
aF0.30490523968784833
aF0.30490523968784833
aF0.30490523968784833
aF0.306577480490524
aF0.306577480490524
aF0.31438127090300994
aF0.3177257525083612
aF0.3193979933110368
aF0.3193979933110368
aF0.32720178372352293
aF0.32720178372352293
aF0.3288740245261984
aF0.3288740245261984
aF0.3305462653288741
aF0.3305462653288741
aF0.3305462653288741
aF0.33556298773690074
aF0.3416945373467112
aF0.3433667781493869
aF0.3433667781493869
aF0.34503901895206246
aF0.3595317725752508
aF0.3723522853957636
aF0.3723522853957636
aF0.3801560758082497
aF0.3818283166109253
aF0.3835005574136009
aF0.39632107023411367
aF0.39799331103678937
aF0.41081382385730214
aF0.42028985507246375
asa(dp45
I10
(lp46
F0.6454320987654322
aF0.6454320987654322
aF0.6587654320987654
aF0.6980246913580247
aF0.802716049382716
aF0.8088888888888889
aF0.6958024691358023
aF0.7400000000000001
aF0.651604938271605
aF0.7224691358024691
aF0.677283950617284
aF0.7019753086419754
aF0.7039506172839506
aF0.6454320987654321
aF0.7595061728395062
aF0.6896296296296297
aF0.7204938271604938
aF0.6844444444444445
aF0.6948148148148148
aF0.6987654320987655
aF0.7575308641975309
aF0.7913580246913581
aF0.6444444444444444
aF0.651604938271605
aF0.6701234567901234
aF0.7133333333333334
aF0.6197530864197531
aF0.6444444444444444
aF0.7133333333333334
aF0.7019753086419754
aF0.7286419753086419
aF0.7595061728395062
aF0.8355555555555555
aF0.7204938271604938
aF0.7585185185185185
aF0.765679012345679
aF0.7400000000000001
aF0.7893827160493827
aF0.8417283950617285
asI5
(lp47
F0.6392592592592593
aF0.6392592592592593
aF0.6824691358024692
aF0.6762962962962963
aF0.6824691358024692
aF0.6918518518518518
aF0.7585185185185185
aF0.8212345679012345
aF0.7071604938271605
aF0.659753086419753
aF0.6948148148148148
aF0.6093827160493828
aF0.714320987654321
aF0.6567901234567901
aF0.7153086419753086
aF0.6382716049382716
aF0.677283950617284
aF0.6854320987654322
aF0.6896296296296297
aF0.6269135802469136
aF0.682469135802469
aF0.6649382716049383
aF0.7266666666666667
aF0.7308641975308642
aF0.7162962962962963
aF0.7328395061728394
aF0.682469135802469
aF0.7224691358024691
aF0.7399999999999999
aF0.6814814814814815
aF0.7893827160493827
aF0.7708641975308641
aF0.7461728395061727
aF0.7533333333333334
aF0.7666666666666667
aF0.8355555555555555
aF0.7081481481481481
aF0.7585185185185185
aF0.8417283950617285
asI7
(lp48
F0.6454320987654322
aF0.6609876543209877
aF0.8160493827160494
aF0.614567901234568
aF0.7019753086419754
aF0.6444444444444445
aF0.6948148148148148
aF0.6649382716049383
aF0.6916049382716049
aF0.6977777777777777
aF0.7162962962962963
aF0.6918518518518518
aF0.6958024691358023
aF0.7019753086419754
aF0.7400000000000001
aF0.6948148148148148
aF0.7604938271604939
aF0.6444444444444444
aF0.6587654320987654
aF0.717283950617284
aF0.7451851851851852
aF0.6320987654320988
aF0.7266666666666667
aF0.8212345679012345
aF0.688641975308642
aF0.6701234567901234
aF0.7133333333333334
aF0.7441975308641976
aF0.6558024691358025
aF0.7328395061728394
aF0.6587654320987654
aF0.8222222222222223
aF0.7585185185185185
aF0.7318518518518519
aF0.717283950617284
aF0.7071604938271605
aF0.7893827160493827
aF0.7533333333333334
aF0.8417283950617285
asaI3
a(lp49
I5
aI7
aI10
aa.