(lp0
S'CV'
p1
acnumpy.core.multiarray
_reconstruct
p2
(cnumpy
ndarray
p3
(I0
tp4
S'b'
p5
tp6
Rp7
(I1
(I39
tp8
cnumpy
dtype
p9
(S'i8'
p10
I0
I1
tp11
Rp12
(I3
S'<'
p13
NNNI-1
I-1
I0
tp14
bI00
S'\x02\x00\x00\x00\x00\x00\x00\x00\x03\x00\x00\x00\x00\x00\x00\x00\x04\x00\x00\x00\x00\x00\x00\x00\x05\x00\x00\x00\x00\x00\x00\x00\x06\x00\x00\x00\x00\x00\x00\x00\x07\x00\x00\x00\x00\x00\x00\x00\x08\x00\x00\x00\x00\x00\x00\x00\t\x00\x00\x00\x00\x00\x00\x00\n\x00\x00\x00\x00\x00\x00\x00\x0b\x00\x00\x00\x00\x00\x00\x00\x0c\x00\x00\x00\x00\x00\x00\x00\r\x00\x00\x00\x00\x00\x00\x00\x0e\x00\x00\x00\x00\x00\x00\x00\x0f\x00\x00\x00\x00\x00\x00\x00\x10\x00\x00\x00\x00\x00\x00\x00\x11\x00\x00\x00\x00\x00\x00\x00\x12\x00\x00\x00\x00\x00\x00\x00\x13\x00\x00\x00\x00\x00\x00\x00\x14\x00\x00\x00\x00\x00\x00\x00\x15\x00\x00\x00\x00\x00\x00\x00\x16\x00\x00\x00\x00\x00\x00\x00\x17\x00\x00\x00\x00\x00\x00\x00\x18\x00\x00\x00\x00\x00\x00\x00\x19\x00\x00\x00\x00\x00\x00\x00\x1a\x00\x00\x00\x00\x00\x00\x00\x1b\x00\x00\x00\x00\x00\x00\x00\x1c\x00\x00\x00\x00\x00\x00\x00\x1d\x00\x00\x00\x00\x00\x00\x00\x1e\x00\x00\x00\x00\x00\x00\x00\x1f\x00\x00\x00\x00\x00\x00\x00 \x00\x00\x00\x00\x00\x00\x00!\x00\x00\x00\x00\x00\x00\x00"\x00\x00\x00\x00\x00\x00\x00#\x00\x00\x00\x00\x00\x00\x00$\x00\x00\x00\x00\x00\x00\x00%\x00\x00\x00\x00\x00\x00\x00&\x00\x00\x00\x00\x00\x00\x00\'\x00\x00\x00\x00\x00\x00\x00(\x00\x00\x00\x00\x00\x00\x00'
p15
tp16
baI1
a(dp17
I10
(lp18
F0.03482587064676623
aF0.04477611940298498
aF0.04975124378109452
aF0.06467661691542281
aF0.06467661691542281
aF0.06965174129353235
aF0.07462686567164178
aF0.07960199004975121
aF0.07960199004975121
aF0.07960199004975133
aF0.07960199004975133
aF0.08457711442786076
aF0.08955223880597007
aF0.08955223880597007
aF0.0945273631840795
aF0.09452736318407962
aF0.09452736318407962
aF0.09950248756218905
aF0.09950248756218905
aF0.09950248756218905
aF0.09950248756218905
aF0.10447761194029859
aF0.10945273631840802
aF0.11442786069651734
aF0.11442786069651734
aF0.11442786069651756
aF0.11940298507462688
aF0.12437810945273631
aF0.12935323383084574
aF0.12935323383084574
aF0.13930348258706482
aF0.13930348258706482
aF0.14427860696517403
aF0.14427860696517414
aF0.14925373134328357
aF0.1691542288557214
aF0.17910447761194026
aF0.1840796019900498
aF0.3880597014925373
asI5
(lp19
F0.039800995024875774
aF0.04477611940298509
aF0.04975124378109452
aF0.054726368159204064
aF0.06467661691542281
aF0.06965174129353235
aF0.06965174129353235
aF0.06965174129353235
aF0.07960199004975121
aF0.07960199004975133
aF0.08457711442786076
aF0.08457711442786076
aF0.08457711442786076
aF0.0945273631840795
aF0.09452736318407962
aF0.09950248756218905
aF0.10447761194029848
aF0.10447761194029859
aF0.10945273631840802
aF0.11442786069651734
aF0.11442786069651734
aF0.11442786069651756
aF0.11940298507462688
aF0.12437810945273631
aF0.12437810945273631
aF0.12437810945273631
aF0.12935323383084574
aF0.13432835820895528
aF0.13432835820895528
aF0.13432835820895528
aF0.13930348258706482
aF0.14427860696517403
aF0.14925373134328357
aF0.1542288557213931
aF0.1542288557213931
aF0.17910447761194026
aF0.17910447761194037
aF0.20398009950248763
aF0.3880597014925373
asI7
(lp20
F0.03482587064676623
aF0.03980099502487555
aF0.04975124378109452
aF0.06467661691542281
aF0.06467661691542281
aF0.06467661691542281
aF0.07462686567164167
aF0.07462686567164178
aF0.07462686567164178
aF0.07462686567164178
aF0.07960199004975121
aF0.07960199004975121
aF0.08457711442786076
aF0.08457711442786076
aF0.08457711442786076
aF0.0895522388059703
aF0.0945273631840795
aF0.09950248756218905
aF0.09950248756218905
aF0.09950248756218905
aF0.09950248756218905
aF0.10447761194029848
aF0.10945273631840802
aF0.10945273631840802
aF0.11940298507462688
aF0.11940298507462688
aF0.11940298507462688
aF0.11940298507462688
aF0.12437810945273631
aF0.13432835820895528
aF0.13432835820895528
aF0.14427860696517403
aF0.14925373134328357
aF0.14925373134328357
aF0.15920398009950254
aF0.1691542288557214
aF0.17412935323383083
aF0.19402985074626866
aF0.3880597014925373
asa(dp21
I10
(lp22
F0.06481481481481481
aF0.1111111111111111
aF0.12962962962962962
aF0.11111111111111112
aF0.19444444444444442
aF0.1851851851851852
aF0.08333333333333333
aF0.12962962962962962
aF0.1851851851851852
aF0.1851851851851852
aF0.1851851851851852
aF0.12037037037037036
aF0.21296296296296294
aF0.22222222222222224
aF0.2222222222222222
aF0.11111111111111112
aF0.12962962962962962
aF0.16666666666666666
aF0.1851851851851852
aF0.20370370370370372
aF0.23148148148148148
aF0.14814814814814814
aF0.20370370370370372
aF0.1111111111111111
aF0.25925925925925924
aF0.25
aF0.21296296296296294
aF0.14814814814814814
aF0.20370370370370372
aF0.25
aF0.19444444444444442
aF0.25
aF0.20370370370370372
aF0.14814814814814814
aF0.25925925925925924
aF0.1574074074074074
aF0.2407407407407407
aF0.26851851851851855
aF0.5925925925925927
asI5
(lp23
F0.06481481481481481
aF0.12962962962962962
aF0.14814814814814814
aF0.2222222222222222
aF0.10185185185185186
aF0.11111111111111112
aF0.16666666666666666
aF0.1851851851851852
aF0.23148148148148148
aF0.24074074074074073
aF0.12962962962962962
aF0.12962962962962962
aF0.25925925925925924
aF0.24074074074074073
aF0.13888888888888887
aF0.1388888888888889
aF0.22222222222222224
aF0.1851851851851852
aF0.25
aF0.21296296296296294
aF0.21296296296296294
aF0.2777777777777778
aF0.19444444444444442
aF0.2037037037037037
aF0.21296296296296294
aF0.25
aF0.22222222222222224
aF0.24074074074074073
aF0.24074074074074078
aF0.27777777777777773
aF0.1851851851851852
aF0.25
aF0.3055555555555556
aF0.1574074074074074
aF0.26851851851851855
aF0.14814814814814814
aF0.21296296296296294
aF0.3611111111111111
aF0.5925925925925927
asI7
(lp24
F0.06481481481481481
aF0.10185185185185186
aF0.13888888888888887
aF0.0925925925925926
aF0.12037037037037036
aF0.23148148148148148
aF0.19444444444444445
aF0.1388888888888889
aF0.16666666666666666
aF0.19444444444444442
aF0.1574074074074074
aF0.2222222222222222
aF0.12037037037037036
aF0.12037037037037036
aF0.17592592592592593
aF0.25925925925925924
aF0.21296296296296294
aF0.12037037037037036
aF0.19444444444444445
aF0.21296296296296294
aF0.23148148148148148
aF0.12037037037037036
aF0.1851851851851852
aF0.19444444444444442
aF0.16666666666666666
aF0.1851851851851852
aF0.2222222222222222
aF0.23148148148148148
aF0.20370370370370372
aF0.25925925925925924
aF0.2777777777777778
aF0.2222222222222222
aF0.25925925925925924
aF0.3148148148148148
aF0.1574074074074074
aF0.13888888888888887
aF0.25
aF0.2962962962962963
aF0.5925925925925927
asa(dp25
I10
(lp26
I0
aI0
aF0.5925925925925927
aF0.06481481481481481
aF0.16666666666666666
aF0.20370370370370372
aF0.25925925925925924
aF0.14814814814814814
aF0.21296296296296294
aF0.2407407407407407
aF0.1111111111111111
aF0.20370370370370372
aF0.22222222222222224
aF0.1851851851851852
aF0.08333333333333333
aF0.11111111111111112
aF0.12962962962962962
aF0.12962962962962962
aF0.1851851851851852
aF0.14814814814814814
aF0.26851851851851855
aF0.21296296296296294
aF0.25925925925925924
aF0.1111111111111111
aF0.19444444444444442
aF0.12037037037037036
aF0.11111111111111112
aF0.20370370370370372
aF0.25
aF0.25
aF0.1851851851851852
aF0.14814814814814814
aF0.19444444444444442
aF0.1851851851851852
aF0.1574074074074074
aF0.25
aF0.1851851851851852
aF0.23148148148148148
aF0.2222222222222222
aF0.20370370370370372
aF0.12962962962962962
asI5
(lp27
I0
aI0
aF0.5925925925925927
aF0.06481481481481481
aF0.24074074074074078
aF0.25
aF0.25
aF0.13888888888888887
aF0.24074074074074073
aF0.3611111111111111
aF0.12962962962962962
aF0.26851851851851855
aF0.24074074074074073
aF0.21296296296296294
aF0.10185185185185186
aF0.11111111111111112
aF0.14814814814814814
aF0.16666666666666666
aF0.23148148148148148
aF0.19444444444444442
aF0.21296296296296294
aF0.22222222222222224
aF0.25925925925925924
aF0.14814814814814814
aF0.1851851851851852
aF0.12962962962962962
aF0.1388888888888889
aF0.21296296296296294
aF0.3055555555555556
aF0.2777777777777778
aF0.2222222222222222
aF0.1851851851851852
aF0.2037037037037037
aF0.22222222222222224
aF0.1574074074074074
aF0.27777777777777773
aF0.1851851851851852
aF0.25
aF0.24074074074074073
aF0.21296296296296294
aF0.12962962962962962
asI7
(lp28
I0
aI0
aF0.5925925925925927
aF0.06481481481481481
aF0.1851851851851852
aF0.2777777777777778
aF0.25925925925925924
aF0.0925925925925926
aF0.2222222222222222
aF0.2962962962962963
aF0.10185185185185186
aF0.2222222222222222
aF0.23148148148148148
aF0.21296296296296294
aF0.12037037037037036
aF0.12037037037037036
aF0.13888888888888887
aF0.1574074074074074
aF0.17592592592592593
aF0.16666666666666666
aF0.25
aF0.23148148148148148
aF0.2222222222222222
aF0.13888888888888887
aF0.19444444444444442
aF0.12037037037037036
aF0.12037037037037036
aF0.19444444444444445
aF0.3148148148148148
aF0.23148148148148148
aF0.19444444444444445
aF0.12037037037037036
aF0.20370370370370372
aF0.16666666666666666
aF0.1574074074074074
aF0.25925925925925924
aF0.1851851851851852
aF0.19444444444444442
aF0.25925925925925924
aF0.21296296296296294
aF0.1388888888888889
asa(dp29
I10
(lp30
I0
aI0
aF0.6119402985074627
aF0.9651741293532338
aF0.900497512437811
aF0.8706467661691543
aF0.8507462686567164
aF0.8955223880597014
aF0.8805970149253731
aF0.8208955223880597
aF0.955223880597015
aF0.855721393034826
aF0.9104477611940299
aF0.9203980099502487
aF0.9253731343283582
aF0.9353233830845772
aF0.9502487562189055
aF0.9203980099502488
aF0.9203980099502487
aF0.8756218905472637
aF0.8159203980099502
aF0.9104477611940299
aF0.8855721393034827
aF0.8855721393034827
aF0.9353233830845772
aF0.9154228855721392
aF0.9054726368159204
aF0.890547263681592
aF0.8706467661691543
aF0.8855721393034824
aF0.9303482587064676
aF0.8557213930348259
aF0.8606965174129352
aF0.9203980099502488
aF0.8308457711442786
aF0.8606965174129352
aF0.900497512437811
aF0.900497512437811
aF0.9054726368159205
aF0.900497512437811
aF0.9054726368159204
asI5
(lp31
I0
aI0
aF0.6119402985074627
aF0.9601990049751242
aF0.8656716417910447
aF0.8756218905472637
aF0.855721393034826
aF0.9054726368159204
aF0.8656716417910447
aF0.7960199004975124
aF0.9552238805970149
aF0.8457711442786069
aF0.9203980099502487
aF0.8855721393034827
aF0.9353233830845772
aF0.9303482587064676
aF0.9502487562189055
aF0.9303482587064676
aF0.9203980099502488
aF0.8805970149253731
aF0.8208955223880596
aF0.8955223880597015
aF0.9154228855721392
aF0.8208955223880597
aF0.9303482587064676
aF0.9154228855721392
aF0.900497512437811
aF0.8756218905472637
aF0.8507462686567164
aF0.8855721393034824
aF0.9452736318407959
aF0.8606965174129352
aF0.8756218905472637
aF0.8706467661691543
aF0.8457711442786069
aF0.8656716417910447
aF0.8955223880597014
aF0.890547263681592
aF0.9054726368159205
aF0.8855721393034827
aF0.9154228855721392
asI7
(lp32
I0
aI0
aF0.6119402985074627
aF0.9651741293532338
aF0.8805970149253731
aF0.8656716417910447
aF0.8507462686567164
aF0.9353233830845772
aF0.8805970149253731
aF0.8059701492537313
aF0.9601990049751244
aF0.855721393034826
aF0.9353233830845772
aF0.900497512437811
aF0.9154228855721392
aF0.9353233830845772
aF0.9502487562189055
aF0.9203980099502488
aF0.9154228855721392
aF0.8805970149253731
aF0.8258706467661692
aF0.900497512437811
aF0.9203980099502488
aF0.8308457711442786
aF0.9253731343283582
aF0.9154228855721392
aF0.900497512437811
aF0.900497512437811
aF0.8507462686567164
aF0.8805970149253731
aF0.9253731343283583
aF0.8955223880597015
aF0.8756218905472637
aF0.9253731343283582
aF0.8407960199004975
aF0.8656716417910447
aF0.890547263681592
aF0.890547263681592
aF0.9104477611940297
aF0.9054726368159205
aF0.9253731343283582
asa(dp33
I10
(lp34
I0
aI0
aF0.4985185185185185
aF0.04
aF0.19012345679012346
aF0.2232098765432099
aF0.3217283950617284
aF0.10074074074074074
aF0.2560493827160494
aF0.2733333333333333
aF0.15432098765432098
aF0.1911111111111111
aF0.2641975308641975
aF0.21777777777777776
aF0.10790123456790124
aF0.12444444444444443
aF0.15925925925925924
aF0.16444444444444442
aF0.2518518518518518
aF0.18814814814814815
aF0.26098765432098764
aF0.257037037037037
aF0.257037037037037
aF0.13160493827160494
aF0.2528395061728395
aF0.19530864197530864
aF0.16864197530864197
aF0.2632098765432099
aF0.25580246913580246
aF0.28790123456790123
aF0.22098765432098766
aF0.17580246913580244
aF0.24074074074074073
aF0.21679012345679013
aF0.2106172839506173
aF0.30716049382716043
aF0.19209876543209878
aF0.3175308641975308
aF0.21679012345679013
aF0.24271604938271607
aF0.15925925925925924
asI5
(lp35
I0
aI0
aF0.4985185185185185
aF0.04
aF0.3441975308641975
aF0.29185185185185186
aF0.30320987654320986
aF0.10074074074074074
aF0.26938271604938274
aF0.4540740740740741
aF0.1491358024691358
aF0.3145679012345679
aF0.2580246913580247
aF0.26098765432098764
aF0.13456790123456788
aF0.12444444444444443
aF0.1911111111111111
aF0.21679012345679013
aF0.3424691358024692
aF0.23950617283950618
aF0.26098765432098764
aF0.26938271604938274
aF0.3022222222222222
aF0.17580246913580244
aF0.2580246913580247
aF0.208641975308642
aF0.205679012345679
aF0.28172839506172836
aF0.31753086419753085
aF0.3197530864197531
aF0.271358024691358
aF0.2385185185185185
aF0.24888888888888885
aF0.2804938271604938
aF0.20444444444444443
aF0.4079012345679012
aF0.19728395061728396
aF0.3432098765432099
aF0.2538271604938272
aF0.257037037037037
aF0.15925925925925924
asI7
(lp36
I0
aI0
aF0.4985185185185185
aF0.04
aF0.24765432098765436
aF0.3298765432098765
aF0.3217283950617284
aF0.10074074074074074
aF0.26839506172839506
aF0.3666666666666667
aF0.13580246913580246
aF0.22814814814814813
aF0.2641975308641975
aF0.25580246913580246
aF0.12641975308641976
aF0.13777777777777778
aF0.17777777777777778
aF0.19012345679012346
aF0.23753086419753086
aF0.19950617283950614
aF0.24864197530864196
aF0.28790123456790123
aF0.27037037037037037
aF0.14395061728395062
aF0.2508641975308642
aF0.17679012345679013
aF0.18098765432098765
aF0.27037037037037037
aF0.3422222222222222
aF0.24567901234567902
aF0.2333333333333333
aF0.16246913580246913
aF0.25925925925925924
aF0.2382716049382716
aF0.20444444444444443
aF0.328641975308642
aF0.1930864197530864
aF0.2866666666666667
aF0.2538271604938272
aF0.24271604938271607
aF0.15925925925925924
asa(dp37
I10
(lp38
I0
aI0
aF0.7608695652173912
aF0.9726867335562988
aF0.8924191750278707
aF0.8444816053511706
aF0.7831661092530657
aF0.9069119286510591
aF0.866778149386845
aF0.7625418060200669
aF0.9470457079152732
aF0.8573021181716834
aF0.9163879598662207
aF0.9147157190635452
aF0.9085841694537345
aF0.9308807134894092
aF0.9214046822742475
aF0.9069119286510591
aF0.8924191750278707
aF0.866778149386845
aF0.9308807134894092
aF0.9069119286510591
aF0.919732441471572
aF0.8907469342251951
aF0.8924191750278707
aF0.8940914158305463
aF0.8138238573021183
aF0.9342251950947604
aF0.9487179487179488
aF0.8489409141583054
aF0.882943143812709
aF0.9085841694537345
aF0.8745819397993312
aF0.8651059085841695
aF0.8249721293199554
aF0.786510590858417
aF0.919732441471572
aF0.8522853957636567
aF0.8846153846153846
aF0.923076923076923
aF0.9325529542920847
asI5
(lp39
I0
aI0
aF0.7608695652173912
aF0.959866220735786
aF0.7881828316610925
aF0.8573021181716834
aF0.7976588628762542
aF0.9069119286510591
aF0.866778149386845
aF0.6967670011148273
aF0.9470457079152732
aF0.8283166109253065
aF0.8907469342251951
aF0.8472686733556299
aF0.8940914158305463
aF0.9163879598662207
aF0.9069119286510591
aF0.9342251950947604
aF0.8924191750278707
aF0.866778149386845
aF0.9308807134894092
aF0.866778149386845
aF0.9308807134894092
aF0.8634336677814939
aF0.8795986622073578
aF0.8940914158305463
aF0.8138238573021183
aF0.8957636566332218
aF0.8957636566332218
aF0.8489409141583054
aF0.9102564102564102
aF0.8522853957636567
aF0.8600891861761427
aF0.7848383500557414
aF0.8651059085841695
aF0.7848383500557414
aF0.9069119286510591
aF0.8634336677814939
aF0.8846153846153846
aF0.8717948717948718
aF0.9342251950947604
asI7
(lp40
I0
aI0
aF0.7608695652173912
aF0.9726867335562988
aF0.8522853957636567
aF0.8316610925306578
aF0.7831661092530657
aF0.9069119286510591
aF0.866778149386845
aF0.7224080267558528
aF0.9470457079152732
aF0.842809364548495
aF0.9163879598662207
aF0.9018952062430324
aF0.8940914158305463
aF0.9308807134894092
aF0.9214046822742475
aF0.9069119286510591
aF0.8779264214046822
aF0.866778149386845
aF0.9308807134894092
aF0.8795986622073578
aF0.9180602006688963
aF0.8907469342251951
aF0.866778149386845
aF0.8940914158305463
aF0.8138238573021183
aF0.9069119286510591
aF0.8940914158305463
aF0.8361204013377925
aF0.8701226309921962
aF0.9214046822742475
aF0.8617614269788184
aF0.8522853957636567
aF0.8651059085841695
aF0.7848383500557414
aF0.9069119286510591
aF0.850613154960981
aF0.923076923076923
aF0.9214046822742475
aF0.9470457079152732
asa(dp41
I10
(lp42
F0.027313266443701245
aF0.05128205128205121
aF0.052954292084726795
aF0.06577480490523957
aF0.06744704570791527
aF0.06911928651059085
aF0.06911928651059085
aF0.07692307692307698
aF0.07859531772575246
aF0.08026755852842804
aF0.08026755852842804
aF0.08361204013377932
aF0.08528428093645479
aF0.09141583054626545
aF0.09141583054626545
aF0.09308807134894093
aF0.09308807134894093
aF0.09308807134894093
aF0.1059085841694537
aF0.10758082497212929
aF0.10758082497212929
aF0.10758082497212929
aF0.10925306577480487
aF0.11538461538461542
aF0.117056856187291
aF0.1254180602006688
aF0.13322185061315495
aF0.13322185061315495
aF0.13489409141583053
aF0.14269788182831655
aF0.1477146042363433
aF0.15105908584169458
aF0.15551839464882944
aF0.17502787068004455
aF0.18617614269788174
aF0.213489409141583
aF0.21683389074693427
aF0.23745819397993306
aF0.23913043478260876
asI5
(lp43
F0.04013377926421402
aF0.052954292084726795
aF0.06577480490523957
aF0.06577480490523957
aF0.06911928651059085
aF0.06911928651059085
aF0.08361204013377932
aF0.08974358974358976
aF0.09308807134894093
aF0.09308807134894093
aF0.09308807134894093
aF0.10423634336677823
aF0.10423634336677823
aF0.1059085841694537
aF0.1059085841694537
aF0.10758082497212929
aF0.10925306577480487
aF0.11538461538461542
aF0.12040133779264217
aF0.1282051282051282
aF0.13322185061315495
aF0.13322185061315495
aF0.13322185061315495
aF0.13489409141583053
aF0.13656633221850611
aF0.13656633221850611
aF0.13991081382385728
aF0.14269788182831655
aF0.1477146042363433
aF0.15105908584169458
aF0.15273132664437006
aF0.1716833890746935
aF0.18617614269788174
aF0.2023411371237458
aF0.2118171683389075
aF0.21516164994425857
aF0.21516164994425857
aF0.23913043478260876
aF0.30323299888517274
asI7
(lp44
F0.027313266443701245
aF0.052954292084726795
aF0.052954292084726795
aF0.06911928651059085
aF0.06911928651059085
aF0.07692307692307698
aF0.07859531772575246
aF0.07859531772575246
aF0.07859531772575246
aF0.08193979933110374
aF0.08361204013377932
aF0.09308807134894093
aF0.09308807134894093
aF0.09308807134894093
aF0.09308807134894093
aF0.09810479375696757
aF0.1059085841694537
aF0.1059085841694537
aF0.1059085841694537
aF0.10925306577480487
aF0.12040133779264217
aF0.12207357859531776
aF0.12987736900780378
aF0.13322185061315495
aF0.13322185061315495
aF0.13322185061315495
aF0.13489409141583053
aF0.1382385730211816
aF0.1477146042363433
aF0.1477146042363433
aF0.149386845039019
aF0.15719063545150502
aF0.16387959866220747
aF0.1683389074693422
aF0.18617614269788174
aF0.21516164994425857
aF0.21683389074693427
aF0.23913043478260876
aF0.2775919732441472
asa(dp45
I10
(lp46
F0.04
aF0.25580246913580246
aF0.15432098765432098
aF0.2632098765432099
aF0.15925925925925924
aF0.12444444444444443
aF0.26098765432098764
aF0.24271604938271607
aF0.15925925925925924
aF0.19209876543209878
aF0.257037037037037
aF0.2641975308641975
aF0.21777777777777776
aF0.10790123456790124
aF0.17580246913580244
aF0.10074074074074074
aF0.16444444444444442
aF0.257037037037037
aF0.19530864197530864
aF0.19012345679012346
aF0.2518518518518518
aF0.2528395061728395
aF0.13160493827160494
aF0.21679012345679013
aF0.22098765432098766
aF0.24074074074074073
aF0.18814814814814815
aF0.2560493827160494
aF0.21679012345679013
aF0.1911111111111111
aF0.3175308641975308
aF0.28790123456790123
aF0.2232098765432099
aF0.2106172839506173
aF0.16864197530864197
aF0.30716049382716043
aF0.3217283950617284
aF0.2733333333333333
aF0.4985185185185185
asI5
(lp47
F0.04
aF0.1491358024691358
aF0.15925925925925924
aF0.21679012345679013
aF0.26098765432098764
aF0.3022222222222222
aF0.12444444444444443
aF0.271358024691358
aF0.10074074074074074
aF0.1911111111111111
aF0.19728395061728396
aF0.28172839506172836
aF0.31753086419753085
aF0.13456790123456788
aF0.208641975308642
aF0.3424691358024692
aF0.2580246913580247
aF0.2538271604938272
aF0.2580246913580247
aF0.257037037037037
aF0.23950617283950618
aF0.26938271604938274
aF0.26938271604938274
aF0.20444444444444443
aF0.17580246913580244
aF0.3432098765432099
aF0.24888888888888885
aF0.29185185185185186
aF0.2385185185185185
aF0.3197530864197531
aF0.26098765432098764
aF0.3145679012345679
aF0.205679012345679
aF0.30320987654320986
aF0.3441975308641975
aF0.2804938271604938
aF0.4079012345679012
aF0.4985185185185185
aF0.4540740740740741
asI7
(lp48
F0.04
aF0.13580246913580246
aF0.15925925925925924
aF0.13777777777777778
aF0.24864197530864196
aF0.2538271604938272
aF0.16246913580246913
aF0.17777777777777778
aF0.24271604938271607
aF0.27037037037037037
aF0.2641975308641975
aF0.10074074074074074
aF0.19012345679012346
aF0.1930864197530864
aF0.27037037037037037
aF0.25580246913580246
aF0.12641975308641976
aF0.17679012345679013
aF0.3422222222222222
aF0.14395061728395062
aF0.28790123456790123
aF0.23753086419753086
aF0.2333333333333333
aF0.19950617283950614
aF0.2508641975308642
aF0.26839506172839506
aF0.20444444444444443
aF0.25925925925925924
aF0.2382716049382716
aF0.24765432098765436
aF0.2866666666666667
aF0.22814814814814813
aF0.24567901234567902
aF0.3298765432098765
aF0.18098765432098765
aF0.328641975308642
aF0.3217283950617284
aF0.4985185185185185
aF0.3666666666666667
asaI3
a(lp49
I5
aI7
aI10
aa.