(lp0
S'CF'
p1
acnumpy.core.multiarray
_reconstruct
p2
(cnumpy
ndarray
p3
(I0
tp4
S'b'
p5
tp6
Rp7
(I1
(I39
tp8
cnumpy
dtype
p9
(S'i8'
p10
I0
I1
tp11
Rp12
(I3
S'<'
p13
NNNI-1
I-1
I0
tp14
bI00
S'\x02\x00\x00\x00\x00\x00\x00\x00\x03\x00\x00\x00\x00\x00\x00\x00\x04\x00\x00\x00\x00\x00\x00\x00\x05\x00\x00\x00\x00\x00\x00\x00\x06\x00\x00\x00\x00\x00\x00\x00\x07\x00\x00\x00\x00\x00\x00\x00\x08\x00\x00\x00\x00\x00\x00\x00\t\x00\x00\x00\x00\x00\x00\x00\n\x00\x00\x00\x00\x00\x00\x00\x0b\x00\x00\x00\x00\x00\x00\x00\x0c\x00\x00\x00\x00\x00\x00\x00\r\x00\x00\x00\x00\x00\x00\x00\x0e\x00\x00\x00\x00\x00\x00\x00\x0f\x00\x00\x00\x00\x00\x00\x00\x10\x00\x00\x00\x00\x00\x00\x00\x11\x00\x00\x00\x00\x00\x00\x00\x12\x00\x00\x00\x00\x00\x00\x00\x13\x00\x00\x00\x00\x00\x00\x00\x14\x00\x00\x00\x00\x00\x00\x00\x15\x00\x00\x00\x00\x00\x00\x00\x16\x00\x00\x00\x00\x00\x00\x00\x17\x00\x00\x00\x00\x00\x00\x00\x18\x00\x00\x00\x00\x00\x00\x00\x19\x00\x00\x00\x00\x00\x00\x00\x1a\x00\x00\x00\x00\x00\x00\x00\x1b\x00\x00\x00\x00\x00\x00\x00\x1c\x00\x00\x00\x00\x00\x00\x00\x1d\x00\x00\x00\x00\x00\x00\x00\x1e\x00\x00\x00\x00\x00\x00\x00\x1f\x00\x00\x00\x00\x00\x00\x00 \x00\x00\x00\x00\x00\x00\x00!\x00\x00\x00\x00\x00\x00\x00"\x00\x00\x00\x00\x00\x00\x00#\x00\x00\x00\x00\x00\x00\x00$\x00\x00\x00\x00\x00\x00\x00%\x00\x00\x00\x00\x00\x00\x00&\x00\x00\x00\x00\x00\x00\x00\'\x00\x00\x00\x00\x00\x00\x00(\x00\x00\x00\x00\x00\x00\x00'
p15
tp16
baI1
a(dp17
cnumpy.core.multiarray
scalar
p18
(g12
S'\x00\x00\x00\x00\x00\x00\x00\x00'
p19
tp20
Rp21
(lp22
F0.3731343283582089
aF0.3731343283582089
aF0.3731343283582089
aF0.3880597014925373
aF0.3880597014925373
aF0.4029850746268657
aF0.4029850746268657
aF0.4029850746268657
aF0.4029850746268657
aF0.4029850746268657
aF0.4029850746268657
aF0.417910447761194
aF0.417910447761194
aF0.417910447761194
aF0.417910447761194
aF0.417910447761194
aF0.417910447761194
aF0.417910447761194
aF0.4328358208955224
aF0.4328358208955224
aF0.4328358208955224
aF0.4328358208955224
aF0.4328358208955224
aF0.4328358208955224
aF0.4477611940298507
aF0.4477611940298507
aF0.4477611940298507
aF0.4477611940298507
aF0.4477611940298507
aF0.4626865671641791
aF0.4626865671641791
aF0.4626865671641791
aF0.4626865671641791
aF0.4626865671641791
aF0.4626865671641791
aF0.4925373134328358
aF0.4925373134328358
aF0.4925373134328358
aF0.4925373134328358
asg18
(g12
S'\x01\x00\x00\x00\x00\x00\x00\x00'
p23
tp24
Rp25
(lp26
F0.25373134328358204
aF0.25373134328358204
aF0.26865671641791045
aF0.26865671641791045
aF0.26865671641791045
aF0.26865671641791045
aF0.26865671641791045
aF0.28358208955223885
aF0.28358208955223885
aF0.28358208955223885
aF0.28358208955223885
aF0.28358208955223885
aF0.28358208955223885
aF0.29850746268656714
aF0.29850746268656714
aF0.29850746268656714
aF0.29850746268656714
aF0.31343283582089554
aF0.31343283582089554
aF0.31343283582089554
aF0.31343283582089554
aF0.31343283582089554
aF0.31343283582089554
aF0.32835820895522383
aF0.32835820895522383
aF0.32835820895522383
aF0.32835820895522383
aF0.34328358208955223
aF0.34328358208955223
aF0.34328358208955223
aF0.34328358208955223
aF0.34328358208955223
aF0.34328358208955223
aF0.34328358208955223
aF0.3731343283582089
aF0.3880597014925373
aF0.4029850746268657
aF0.4029850746268657
aF0.417910447761194
asg18
(g12
S'\x02\x00\x00\x00\x00\x00\x00\x00'
p27
tp28
Rp29
(lp30
F0.26865671641791045
aF0.29850746268656714
aF0.29850746268656714
aF0.29850746268656714
aF0.29850746268656714
aF0.31343283582089554
aF0.32835820895522383
aF0.34328358208955223
aF0.34328358208955223
aF0.34328358208955223
aF0.34328358208955223
aF0.34328358208955223
aF0.34328358208955223
aF0.34328358208955223
aF0.34328358208955223
aF0.35820895522388063
aF0.35820895522388063
aF0.35820895522388063
aF0.35820895522388063
aF0.3731343283582089
aF0.3731343283582089
aF0.3731343283582089
aF0.3731343283582089
aF0.3880597014925373
aF0.3880597014925373
aF0.4029850746268657
aF0.4029850746268657
aF0.4029850746268657
aF0.4029850746268657
aF0.4029850746268657
aF0.4029850746268657
aF0.4029850746268657
aF0.417910447761194
aF0.4328358208955224
aF0.4477611940298507
aF0.4477611940298507
aF0.4626865671641791
aF0.4626865671641791
aF0.4776119402985075
asa(dp31
g21
(lp32
F0.6111111111111112
aF0.6666666666666666
aF0.6944444444444444
aF0.5555555555555556
aF0.6388888888888888
aF0.5833333333333334
aF0.5833333333333334
aF0.5833333333333334
aF0.6111111111111112
aF0.6666666666666666
aF0.6666666666666666
aF0.5833333333333334
aF0.5833333333333334
aF0.6111111111111112
aF0.6111111111111112
aF0.6388888888888888
aF0.6666666666666666
aF0.75
aF0.5277777777777778
aF0.5277777777777778
aF0.5833333333333334
aF0.6111111111111112
aF0.6388888888888888
aF0.75
aF0.6111111111111112
aF0.6111111111111112
aF0.6388888888888888
aF0.6388888888888888
aF0.75
aF0.5833333333333334
aF0.5833333333333334
aF0.6111111111111112
aF0.6666666666666666
aF0.6666666666666666
aF0.6666666666666666
aF0.5833333333333334
aF0.6388888888888888
aF0.6388888888888888
aF0.7222222222222222
asg25
(lp33
F0.6388888888888888
aF0.6388888888888888
aF0.5833333333333334
aF0.6111111111111112
aF0.6388888888888888
aF0.6666666666666666
aF0.7222222222222222
aF0.4722222222222222
aF0.5833333333333334
aF0.5833333333333334
aF0.6388888888888888
aF0.6388888888888888
aF0.75
aF0.5833333333333334
aF0.6111111111111112
aF0.6388888888888888
aF0.6388888888888888
aF0.5833333333333334
aF0.5833333333333334
aF0.5833333333333334
aF0.6388888888888888
aF0.6388888888888888
aF0.6666666666666666
aF0.5833333333333334
aF0.6388888888888888
aF0.6666666666666666
aF0.6944444444444444
aF0.5833333333333334
aF0.6111111111111112
aF0.6111111111111112
aF0.6666666666666666
aF0.6666666666666666
aF0.6944444444444444
aF0.75
aF0.6666666666666666
aF0.6944444444444444
aF0.6111111111111112
aF0.6111111111111112
aF0.6388888888888888
asg29
(lp34
F0.6666666666666666
aF0.5
aF0.6666666666666666
aF0.6666666666666666
aF0.6944444444444444
aF0.6111111111111112
aF0.6944444444444444
aF0.5555555555555556
aF0.6111111111111112
aF0.6111111111111112
aF0.6388888888888888
aF0.6388888888888888
aF0.6666666666666666
aF0.6944444444444444
aF0.6944444444444444
aF0.5833333333333334
aF0.6111111111111112
aF0.6388888888888888
aF0.6944444444444444
aF0.6111111111111112
aF0.6111111111111112
aF0.6388888888888888
aF0.6666666666666666
aF0.6111111111111112
aF0.6388888888888888
aF0.6111111111111112
aF0.6111111111111112
aF0.6388888888888888
aF0.6388888888888888
aF0.6388888888888888
aF0.6388888888888888
aF0.6666666666666666
aF0.6666666666666666
aF0.6666666666666666
aF0.5833333333333334
aF0.6388888888888888
aF0.6388888888888888
aF0.6944444444444444
aF0.6944444444444444
asa(dp35
g18
(g12
S'\x00\x00\x00\x00\x00\x00\x00\x00'
p36
tp37
Rp38
(lp39
I0
aI0
ag18
(g9
(S'f8'
p40
I0
I1
tp41
Rp42
(I3
S'<'
p43
NNNI-1
I-1
I0
tp44
bS'\xba\x83\xfdV\x1bC\xe3?'
p45
tp46
Rp47
ag18
(g42
S'\x16\xf1\t\xa4\x92\xf3\xe2?'
p48
tp49
Rp50
ag18
(g42
S'\xce\xcb">\x81T\xe2?'
p51
tp52
Rp53
ag18
(g42
S'\x02\xa9\xe4\xbc,\xe2\xe3?'
p54
tp55
Rp56
ag18
(g42
S'^\x16\xf1\t\xa4\x92\xe3?'
p57
tp58
Rp59
ag18
(g42
S'r^\x16\xf1\t\xa4\xe2?'
p60
tp61
Rp62
ag18
(g42
S'*9/\x8b\xf8\x04\xe2?'
p63
tp64
Rp65
ag18
(g42
S'\xce\xcb">\x81T\xe2?'
p66
tp67
Rp68
ag18
(g42
S'\x86\xa6;\xd8o\xb5\xe1?'
p69
tp70
Rp71
ag18
(g42
S'K\xce\xcb">\x81\xe4?'
p72
tp73
Rp74
ag18
(g42
S'\x86\xa6;\xd8o\xb5\xe1?'
p75
tp76
Rp77
ag18
(g42
S'\x86\xa6;\xd8o\xb5\xe1?'
p78
tp79
Rp80
ag18
(g42
S'r^\x16\xf1\t\xa4\xe2?'
p81
tp82
Rp83
ag18
(g42
S'r^\x16\xf1\t\xa4\xe2?'
p84
tp85
Rp86
ag18
(g42
S'\x86\xa6;\xd8o\xb5\xe1?'
p87
tp88
Rp89
ag18
(g42
S'\x16\xf1\t\xa4\x92\xf3\xe2?'
p90
tp91
Rp92
ag18
(g42
S'\xba\x83\xfdV\x1bC\xe3?'
p93
tp94
Rp95
ag18
(g42
S'r^\x16\xf1\t\xa4\xe2?'
p96
tp97
Rp98
ag18
(g42
S'\x16\xf1\t\xa4\x92\xf3\xe2?'
p99
tp100
Rp101
ag18
(g42
S'r^\x16\xf1\t\xa4\xe2?'
p102
tp103
Rp104
ag18
(g42
S'r^\x16\xf1\t\xa4\xe2?'
p105
tp106
Rp107
ag18
(g42
S'\x02\xa9\xe4\xbc,\xe2\xe3?'
p108
tp109
Rp110
ag18
(g42
S'\x86\xa6;\xd8o\xb5\xe1?'
p111
tp112
Rp113
ag18
(g42
S'\x16\xf1\t\xa4\x92\xf3\xe2?'
p114
tp115
Rp116
ag18
(g42
S'\x02\xa9\xe4\xbc,\xe2\xe3?'
p117
tp118
Rp119
ag18
(g42
S'\x16\xf1\t\xa4\x92\xf3\xe2?'
p120
tp121
Rp122
ag18
(g42
S'r^\x16\xf1\t\xa4\xe2?'
p123
tp124
Rp125
ag18
(g42
S'\xce\xcb">\x81T\xe2?'
p126
tp127
Rp128
ag18
(g42
S'\x16\xf1\t\xa4\x92\xf3\xe2?'
p129
tp130
Rp131
ag18
(g42
S'\x02\xa9\xe4\xbc,\xe2\xe3?'
p132
tp133
Rp134
ag18
(g42
S'r^\x16\xf1\t\xa4\xe2?'
p135
tp136
Rp137
ag18
(g42
S'K\xce\xcb">\x81\xe4?'
p138
tp139
Rp140
ag18
(g42
S'r^\x16\xf1\t\xa4\xe2?'
p141
tp142
Rp143
ag18
(g42
S'\x02\xa9\xe4\xbc,\xe2\xe3?'
p144
tp145
Rp146
ag18
(g42
S'\x16\xf1\t\xa4\x92\xf3\xe2?'
p147
tp148
Rp149
ag18
(g42
S'\xef`\xbf\xd5\xc6\xd0\xe4?'
p150
tp151
Rp152
ag18
(g42
S'\x86\xa6;\xd8o\xb5\xe1?'
p153
tp154
Rp155
ag18
(g42
S'\xa7;\xd8o\xb51\xe4?'
p156
tp157
Rp158
ag18
(g42
S'>\x81Tr^\x16\xe1?'
p159
tp160
Rp161
asg18
(g12
S'\x01\x00\x00\x00\x00\x00\x00\x00'
p162
tp163
Rp164
(lp165
I0
aI0
ag18
(g42
S'\xdb\x18\x9a\xee`\xbf\xe5?'
p166
tp167
Rp168
ag18
(g42
S'\x7f\xab\x8d\xa1\xe9\x0e\xe6?'
p169
tp170
Rp171
ag18
(g42
S'\xa7;\xd8o\xb51\xe4?'
p172
tp173
Rp174
ag18
(g42
S'\x93\xf3\xb2\x88O \xe5?'
p175
tp176
Rp177
ag18
(g42
S'\xc7\xd0t\x07\xfb\xad\xe6?'
p178
tp179
Rp180
ag18
(g42
S'\x0e\xf6[m\x0cM\xe7?'
p181
tp182
Rp183
ag18
(g42
S'\xdb\x18\x9a\xee`\xbf\xe5?'
p184
tp185
Rp186
ag18
(g42
S'#>\x81Tr^\xe6?'
p187
tp188
Rp189
ag18
(g42
S'7\x86\xa6;\xd8o\xe5?'
p190
tp191
Rp192
ag18
(g42
S'\x0e\xf6[m\x0cM\xe7?'
p193
tp194
Rp195
ag18
(g42
S'\xef`\xbf\xd5\xc6\xd0\xe4?'
p196
tp197
Rp198
ag18
(g42
S'\xdb\x18\x9a\xee`\xbf\xe5?'
p199
tp200
Rp201
ag18
(g42
S'7\x86\xa6;\xd8o\xe5?'
p202
tp203
Rp204
ag18
(g42
S'\xef`\xbf\xd5\xc6\xd0\xe4?'
p205
tp206
Rp207
ag18
(g42
S'\xc7\xd0t\x07\xfb\xad\xe6?'
p208
tp209
Rp210
ag18
(g42
S'\x93\xf3\xb2\x88O \xe5?'
p211
tp212
Rp213
ag18
(g42
S'\xef`\xbf\xd5\xc6\xd0\xe4?'
p214
tp215
Rp216
ag18
(g42
S'K\xce\xcb">\x81\xe4?'
p217
tp218
Rp219
ag18
(g42
S'\x7f\xab\x8d\xa1\xe9\x0e\xe6?'
p220
tp221
Rp222
ag18
(g42
S'\x7f\xab\x8d\xa1\xe9\x0e\xe6?'
p223
tp224
Rp225
ag18
(g42
S'K\xce\xcb">\x81\xe4?'
p226
tp227
Rp228
ag18
(g42
S'7\x86\xa6;\xd8o\xe5?'
p229
tp230
Rp231
ag18
(g42
S'\xa7;\xd8o\xb51\xe4?'
p232
tp233
Rp234
ag18
(g42
S'7\x86\xa6;\xd8o\xe5?'
p235
tp236
Rp237
ag18
(g42
S'K\xce\xcb">\x81\xe4?'
p238
tp239
Rp240
ag18
(g42
S'\x93\xf3\xb2\x88O \xe5?'
p241
tp242
Rp243
ag18
(g42
S'7\x86\xa6;\xd8o\xe5?'
p244
tp245
Rp246
ag18
(g42
S'7\x86\xa6;\xd8o\xe5?'
p247
tp248
Rp249
ag18
(g42
S'\xc7\xd0t\x07\xfb\xad\xe6?'
p250
tp251
Rp252
ag18
(g42
S'K\xce\xcb">\x81\xe4?'
p253
tp254
Rp255
ag18
(g42
S'\xdb\x18\x9a\xee`\xbf\xe5?'
p256
tp257
Rp258
ag18
(g42
S'\xdb\x18\x9a\xee`\xbf\xe5?'
p259
tp260
Rp261
ag18
(g42
S'7\x86\xa6;\xd8o\xe5?'
p262
tp263
Rp264
ag18
(g42
S'\xba\x83\xfdV\x1bC\xe3?'
p265
tp266
Rp267
ag18
(g42
S'\x7f\xab\x8d\xa1\xe9\x0e\xe6?'
p268
tp269
Rp270
ag18
(g42
S'\xba\x83\xfdV\x1bC\xe3?'
p271
tp272
Rp273
ag18
(g42
S'\xba\x83\xfdV\x1bC\xe3?'
p274
tp275
Rp276
ag18
(g42
S'\x93\xf3\xb2\x88O \xe5?'
p277
tp278
Rp279
ag18
(g42
S'K\xce\xcb">\x81\xe4?'
p280
tp281
Rp282
asg18
(g12
S'\x02\x00\x00\x00\x00\x00\x00\x00'
p283
tp284
Rp285
(lp286
I0
aI0
ag18
(g42
S'\x7f\xab\x8d\xa1\xe9\x0e\xe6?'
p287
tp288
Rp289
ag18
(g42
S'7\x86\xa6;\xd8o\xe5?'
p290
tp291
Rp292
ag18
(g42
S'\xba\x83\xfdV\x1bC\xe3?'
p293
tp294
Rp295
ag18
(g42
S'*9/\x8b\xf8\x04\xe2?'
p296
tp297
Rp298
ag18
(g42
S'\x02\xa9\xe4\xbc,\xe2\xe3?'
p299
tp300
Rp301
ag18
(g42
S'\xef`\xbf\xd5\xc6\xd0\xe4?'
p302
tp303
Rp304
ag18
(g42
S'\xa7;\xd8o\xb51\xe4?'
p305
tp306
Rp307
ag18
(g42
S'^\x16\xf1\t\xa4\x92\xe3?'
p308
tp309
Rp310
ag18
(g42
S'#>\x81Tr^\xe6?'
p311
tp312
Rp313
ag18
(g42
S'\x02\xa9\xe4\xbc,\xe2\xe3?'
p314
tp315
Rp316
ag18
(g42
S'\xc7\xd0t\x07\xfb\xad\xe6?'
p317
tp318
Rp319
ag18
(g42
S'7\x86\xa6;\xd8o\xe5?'
p320
tp321
Rp322
ag18
(g42
S'^\x16\xf1\t\xa4\x92\xe3?'
p323
tp324
Rp325
ag18
(g42
S'\x93\xf3\xb2\x88O \xe5?'
p326
tp327
Rp328
ag18
(g42
S'\x16\xf1\t\xa4\x92\xf3\xe2?'
p329
tp330
Rp331
ag18
(g42
S'K\xce\xcb">\x81\xe4?'
p332
tp333
Rp334
ag18
(g42
S'\xce\xcb">\x81T\xe2?'
p335
tp336
Rp337
ag18
(g42
S'\x7f\xab\x8d\xa1\xe9\x0e\xe6?'
p338
tp339
Rp340
ag18
(g42
S'r^\x16\xf1\t\xa4\xe2?'
p341
tp342
Rp343
ag18
(g42
S'\x93\xf3\xb2\x88O \xe5?'
p344
tp345
Rp346
ag18
(g42
S'K\xce\xcb">\x81\xe4?'
p347
tp348
Rp349
ag18
(g42
S'\xdb\x18\x9a\xee`\xbf\xe5?'
p350
tp351
Rp352
ag18
(g42
S'\xba\x83\xfdV\x1bC\xe3?'
p353
tp354
Rp355
ag18
(g42
S'^\x16\xf1\t\xa4\x92\xe3?'
p356
tp357
Rp358
ag18
(g42
S'\xba\x83\xfdV\x1bC\xe3?'
p359
tp360
Rp361
ag18
(g42
S'\x93\xf3\xb2\x88O \xe5?'
p362
tp363
Rp364
ag18
(g42
S'^\x16\xf1\t\xa4\x92\xe3?'
p365
tp366
Rp367
ag18
(g42
S'^\x16\xf1\t\xa4\x92\xe3?'
p368
tp369
Rp370
ag18
(g42
S'K\xce\xcb">\x81\xe4?'
p371
tp372
Rp373
ag18
(g42
S'^\x16\xf1\t\xa4\x92\xe3?'
p374
tp375
Rp376
ag18
(g42
S'\xa7;\xd8o\xb51\xe4?'
p377
tp378
Rp379
ag18
(g42
S'\x02\xa9\xe4\xbc,\xe2\xe3?'
p380
tp381
Rp382
ag18
(g42
S'r^\x16\xf1\t\xa4\xe2?'
p383
tp384
Rp385
ag18
(g42
S'\xa7;\xd8o\xb51\xe4?'
p386
tp387
Rp388
ag18
(g42
S'K\xce\xcb">\x81\xe4?'
p389
tp390
Rp391
ag18
(g42
S'\x02\xa9\xe4\xbc,\xe2\xe3?'
p392
tp393
Rp394
ag18
(g42
S'\x02\xa9\xe4\xbc,\xe2\xe3?'
p395
tp396
Rp397
ag18
(g42
S'\x02\xa9\xe4\xbc,\xe2\xe3?'
p398
tp399
Rp400
ag18
(g42
S'\xef`\xbf\xd5\xc6\xd0\xe4?'
p401
tp402
Rp403
asa(dp404
g38
(lp405
I0
aI0
ag18
(g42
S'R\xdd\xcb\x19L\x8d\xe3?'
p406
tp407
Rp408
ag18
(g42
S'\x98\x10\x8dC\xc7@\xe3?'
p409
tp410
Rp411
ag18
(g42
S'\x0c\xbc\xd0\tc\xa5\xe2?'
p412
tp413
Rp414
ag18
(g42
S'M\x1aa\x8e\x14*\xe4?'
p415
tp416
Rp417
ag18
(g42
S'#eI}+\xdc\xe3?'
p418
tp419
Rp420
ag18
(g42
S'\t\xbe\xaa\xa34\xf2\xe2?'
p421
tp422
Rp423
ag18
(g42
S'\xf9\xba\xac\xf8\xc5V\xe2?'
p424
tp425
Rp426
ag18
(g42
S'\x0c\xbc\xd0\tc\xa5\xe2?'
p427
tp428
Rp429
ag18
(g42
S'\x82g\x14\xd0\xfe\t\xe2?'
p430
tp431
Rp432
ag18
(g42
S'q\xf3\xd0\xf11\xc4\xe4?'
p433
tp434
Rp435
ag18
(g42
S'\x054\x19".\x02\xe2?'
p436
tp437
Rp438
ag18
(g42
S'\x82g\x14\xd0\xfe\t\xe2?'
p439
tp440
Rp441
ag18
(g42
S'ER\xc9-\xd9\xf1\xe2?'
p442
tp443
Rp444
ag18
(g42
S'ER\xc9-\xd9\xf1\xe2?'
p445
tp446
Rp447
ag18
(g42
S'\x054\x19".\x02\xe2?'
p448
tp449
Rp450
ag18
(g42
S'4h\xca\x1b\x9c@\xe3?'
p451
tp452
Rp453
ag18
(g42
S'(P\x17&\xb3\x8e\xe3?'
p454
tp455
Rp456
ag18
(g42
S'\x878x\x99\x8c\xee\xe2?'
p457
tp458
Rp459
ag18
(g42
S'y\xacE6\xe4=\xe3?'
p460
tp461
Rp462
ag18
(g42
S'\x878x\x99\x8c\xee\xe2?'
p463
tp464
Rp465
ag18
(g42
S'\x878x\x99\x8c\xee\xe2?'
p466
tp467
Rp468
ag18
(g42
S'\xb0@\x83\x94\x04%\xe4?'
p469
tp470
Rp471
ag18
(g42
S'\x9d*\x03`\xd5\x06\xe2?'
p472
tp473
Rp474
ag18
(g42
S'y\xacE6\xe4=\xe3?'
p475
tp476
Rp477
ag18
(g42
S'\xecYp{( \xe4?'
p478
tp479
Rp480
ag18
(g42
S'\xc22\xbd\x10\x908\xe3?'
p481
tp482
Rp483
ag18
(g42
S'\x05\x86\xcd\xbdQ\xf3\xe2?'
p484
tp485
Rp486
ag18
(g42
S'\xed\x9d\xf8\xd35\xa5\xe2?'
p487
tp488
Rp489
ag18
(g42
S'y\xacE6\xe4=\xe3?'
p490
tp491
Rp492
ag18
(g42
S'ah\xce\x05\xbf(\xe4?'
p493
tp494
Rp495
ag18
(g42
S'<X\xc2\xbd\xb6\xdf\xe2?'
p496
tp497
Rp498
ag18
(g42
S"'\xef\xa86[\xc1\xe4?"
p499
tp500
Rp501
ag18
(g42
S'\t\xbe\xaa\xa34\xf2\xe2?'
p502
tp503
Rp504
ag18
(g42
S'M\x1aa\x8e\x14*\xe4?'
p505
tp506
Rp507
ag18
(g42
S'4h\xca\x1b\x9c@\xe3?'
p508
tp509
Rp510
ag18
(g42
S'\t\xc7?\xf3\xce\x12\xe5?'
p511
tp512
Rp513
ag18
(g42
S'\x9d*\x03`\xd5\x06\xe2?'
p514
tp515
Rp516
ag18
(g42
S'0\xe8\xc6\xfa\x1aq\xe4?'
p517
tp518
Rp519
ag18
(g42
S'B;\x19\xc0\xefk\xe1?'
p520
tp521
Rp522
asg164
(lp523
I0
aI0
ag18
(g42
S'\xbd6\xe5.\xf0\xf7\xe5?'
p524
tp525
Rp526
ag18
(g42
S'\x96[\xe3\x82\x9bI\xe6?'
p527
tp528
Rp529
ag18
(g42
S'\xa7;\xd8o\xb51\xe4?'
p530
tp531
Rp532
ag18
(g42
S'c\x8f\xc4PL\\\xe5?'
p533
tp534
Rp535
ag18
(g42
S'\xcb\xfb\xe1\x06\xd4\xd1\xe6?'
p536
tp537
Rp538
ag18
(g42
S'+w\xd3\xb5\n{\xe7?'
p539
tp540
Rp541
ag18
(g42
S'\xcc\x04\xac^\xb4\xf2\xe5?'
p542
tp543
Rp544
ag18
(g42
S':\x93\xde\t\xb7~\xe6?'
p545
tp546
Rp547
ag18
(g42
S'\x94\x85\x1f}g\x8d\xe5?'
p548
tp549
Rp550
ag18
(g42
S'\x14R\xb6\x01\xb3u\xe7?'
p551
tp552
Rp553
ag18
(g42
S'\x8e\x94u;\xcb\xfb\xe4?'
p554
tp555
Rp556
ag18
(g42
S'\xf9\xafbr\xd1\xd5\xe5?'
p557
tp558
Rp559
ag18
(g42
S'`\xd18\xcb4\xa1\xe5?'
p560
tp561
Rp562
ag18
(g42
S'\x8e\x94u;\xcb\xfb\xe4?'
p563
tp564
Rp565
ag18
(g42
S'\x19\xb2\xfd\x04\x10\xc8\xe6?'
p566
tp567
Rp568
ag18
(g42
S'A\xc7\xea#\xbeD\xe5?'
p569
tp570
Rp571
ag18
(g42
S'\x8e\x94u;\xcb\xfb\xe4?'
p572
tp573
Rp574
ag18
(g42
S'W\x9e\xe3\xb7\x84\xb2\xe4?'
p575
tp576
Rp577
ag18
(g42
S'b\xd9\xbdm&5\xe6?'
p578
tp579
Rp580
ag18
(g42
S'b\xd9\xbdm&5\xe6?'
p581
tp582
Rp583
ag18
(g42
S'\xe6\x14\x9a;\xca\xba\xe4?'
p584
tp585
Rp586
ag18
(g42
S'\xf7\xb6\x99\xd4x\x98\xe5?'
p587
tp588
Rp589
ag18
(g42
S'?&\xe5\xa6\xe0h\xe4?'
p590
tp591
Rp592
ag18
(g42
S'2\xb0\xca\xe2\x01\xac\xe5?'
p593
tp594
Rp595
ag18
(g42
S'p\xe4\xaa\xf6u\xc5\xe4?'
p596
tp597
Rp598
ag18
(g42
S'\xd9\x0c#M\xbfV\xe5?'
p599
tp600
Rp601
ag18
(g42
S'`\xd18\xcb4\xa1\xe5?'
p602
tp603
Rp604
ag18
(g42
S'\x94\x85\x1f}g\x8d\xe5?'
p605
tp606
Rp607
ag18
(g42
S'\x19\xb2\xfd\x04\x10\xc8\xe6?'
p608
tp609
Rp610
ag18
(g42
S'\xe6\x14\x9a;\xca\xba\xe4?'
p611
tp612
Rp613
ag18
(g42
S'$\x94\x9a\xc6S\xeb\xe5?'
p614
tp615
Rp616
ag18
(g42
S'$\x94\x9a\xc6S\xeb\xe5?'
p617
tp618
Rp619
ag18
(g42
S'\xd9Y\xa5\x93\xb1\xa7\xe5?'
p620
tp621
Rp622
ag18
(g42
S'(P\x17&\xb3\x8e\xe3?'
p623
tp624
Rp625
ag18
(g42
S'\xd6\x9b\x0e\xc1\xbb*\xe6?'
p626
tp627
Rp628
ag18
(g42
S'R\xdd\xcb\x19L\x8d\xe3?'
p629
tp630
Rp631
ag18
(g42
S'R\xdd\xcb\x19L\x8d\xe3?'
p632
tp633
Rp634
ag18
(g42
S'c\x8f\xc4PL\\\xe5?'
p635
tp636
Rp637
ag18
(g42
S'q\xf3\xd0\xf11\xc4\xe4?'
p638
tp639
Rp640
asg285
(lp641
I0
aI0
ag18
(g42
S'\xf1\xa6b\xdd^=\xe6?'
p642
tp643
Rp644
ag18
(g42
S'2\xb0\xca\xe2\x01\xac\xe5?'
p645
tp646
Rp647
ag18
(g42
S'R\xdd\xcb\x19L\x8d\xe3?'
p648
tp649
Rp650
ag18
(g42
S'\xe2\xbb\x83U\xf0W\xe2?'
p651
tp652
Rp653
ag18
(g42
S'M\x1aa\x8e\x14*\xe4?'
p654
tp655
Rp656
ag18
(g42
S'\x13P\xeb2\xe9\x0b\xe5?'
p657
tp658
Rp659
ag18
(g42
S'MF1\xd2 p\xe4?'
p660
tp661
Rp662
ag18
(g42
S'g\xedf\xa1k\xd9\xe3?'
p663
tp664
Rp665
ag18
(g42
S'\xbf\xfc4p\xa9\x8e\xe6?'
p666
tp667
Rp668
ag18
(g42
S'ah\xce\x05\xbf(\xe4?'
p669
tp670
Rp671
ag18
(g42
S'\xcb\xfb\xe1\x06\xd4\xd1\xe6?'
p672
tp673
Rp674
ag18
(g42
S'2\xb0\xca\xe2\x01\xac\xe5?'
p675
tp676
Rp677
ag18
(g42
S'#eI}+\xdc\xe3?'
p678
tp679
Rp680
ag18
(g42
S'\x7f~\xd3\xdd\xa4_\xe5?'
p681
tp682
Rp683
ag18
(g42
S'\x1b\x0ep\x8e\xa49\xe3?'
p684
tp685
Rp686
ag18
(g42
S'\xe6\x14\x9a;\xca\xba\xe4?'
p687
tp688
Rp689
ag18
(g42
S'\xa7\xcb\xc1\x1a\xf1\xa2\xe2?'
p690
tp691
Rp692
ag18
(g42
S'\xf1\xa6b\xdd^=\xe6?'
p693
tp694
Rp695
ag18
(g42
S'SB\xa3%a\xe8\xe2?'
p696
tp697
Rp698
ag18
(g42
S'>\x19??\xecN\xe5?'
p699
tp700
Rp701
ag18
(g42
S'q\xf3\xd0\xf11\xc4\xe4?'
p702
tp703
Rp704
ag18
(g42
S'\xbd6\xe5.\xf0\xf7\xe5?'
p705
tp706
Rp707
ag18
(g42
S'R\xdd\xcb\x19L\x8d\xe3?'
p708
tp709
Rp710
ag18
(g42
S'z2\x9cc\x02\xdc\xe3?'
p711
tp712
Rp713
ag18
(g42
S'\x1a\xc1\xa8N\xa3\x8d\xe3?'
p714
tp715
Rp716
ag18
(g42
S'c\x8f\xc4PL\\\xe5?'
p717
tp718
Rp719
ag18
(g42
S'z2\x9cc\x02\xdc\xe3?'
p720
tp721
Rp722
ag18
(g42
S'z2\x9cc\x02\xdc\xe3?'
p723
tp724
Rp725
ag18
(g42
S'\n\xe8\xa3r\xa8\xc0\xe4?'
p726
tp727
Rp728
ag18
(g42
S'z2\x9cc\x02\xdc\xe3?'
p729
tp730
Rp731
ag18
(g42
S'V.\x88\x0c\xf3t\xe4?'
p732
tp733
Rp734
ag18
(g42
S'p#\x880\x1d\x16\xe4?'
p735
tp736
Rp737
ag18
(g42
S'\t\xbe\xaa\xa34\xf2\xe2?'
p738
tp739
Rp740
ag18
(g42
S'\x1d\x8e\x83\x84\xa7C\xe4?'
p741
tp742
Rp743
ag18
(g42
S'\xe6\x14\x9a;\xca\xba\xe4?'
p744
tp745
Rp746
ag18
(g42
S'\xb0@\x83\x94\x04%\xe4?'
p747
tp748
Rp749
ag18
(g42
S'\xb0@\x83\x94\x04%\xe4?'
p750
tp751
Rp752
ag18
(g42
S'\xf1\x1c\x11*\xd5\x1e\xe4?'
p753
tp754
Rp755
ag18
(g42
S'\x13P\xeb2\xe9\x0b\xe5?'
p756
tp757
Rp758
asa(dp759
g38
(lp760
I0
aI0
aF0.6111111111111112
aF0.6388888888888888
aF0.6111111111111112
aF0.6666666666666666
aF0.6666666666666666
aF0.6388888888888888
aF0.6111111111111112
aF0.6111111111111112
aF0.5833333333333334
aF0.6666666666666666
aF0.6388888888888888
aF0.5833333333333334
aF0.5833333333333334
aF0.5833333333333334
aF0.6388888888888888
aF0.6111111111111112
aF0.6388888888888888
aF0.6666666666666666
aF0.5833333333333334
aF0.6666666666666666
aF0.6666666666666666
aF0.6111111111111112
aF0.5277777777777778
aF0.5833333333333334
aF0.75
aF0.5555555555555556
aF0.6111111111111112
aF0.5833333333333334
aF0.5833333333333334
aF0.6388888888888888
aF0.7222222222222222
aF0.75
aF0.6388888888888888
aF0.6666666666666666
aF0.6111111111111112
aF0.6944444444444444
aF0.5277777777777778
aF0.75
aF0.5833333333333334
asg164
(lp761
I0
aI0
aF0.6944444444444444
aF0.75
aF0.4722222222222222
aF0.6666666666666666
aF0.6666666666666666
aF0.75
aF0.6666666666666666
aF0.6388888888888888
aF0.5833333333333334
aF0.7222222222222222
aF0.5833333333333334
aF0.5833333333333334
aF0.6388888888888888
aF0.5833333333333334
aF0.6388888888888888
aF0.5833333333333334
aF0.5833333333333334
aF0.5833333333333334
aF0.6388888888888888
aF0.6388888888888888
aF0.6111111111111112
aF0.6111111111111112
aF0.5833333333333334
aF0.6944444444444444
aF0.6944444444444444
aF0.6388888888888888
aF0.6388888888888888
aF0.5833333333333334
aF0.6388888888888888
aF0.6111111111111112
aF0.6388888888888888
aF0.6388888888888888
aF0.6666666666666666
aF0.6388888888888888
aF0.6111111111111112
aF0.6111111111111112
aF0.6111111111111112
aF0.6666666666666666
aF0.6666666666666666
asg285
(lp762
I0
aI0
aF0.6666666666666666
aF0.6944444444444444
aF0.6111111111111112
aF0.5833333333333334
aF0.6666666666666666
aF0.6388888888888888
aF0.6111111111111112
aF0.6111111111111112
aF0.6944444444444444
aF0.6388888888888888
aF0.6666666666666666
aF0.6944444444444444
aF0.6666666666666666
aF0.6944444444444444
aF0.6944444444444444
aF0.6111111111111112
aF0.6388888888888888
aF0.6666666666666666
aF0.6944444444444444
aF0.6111111111111112
aF0.6666666666666666
aF0.6944444444444444
aF0.6111111111111112
aF0.6388888888888888
aF0.6666666666666666
aF0.6666666666666666
aF0.6388888888888888
aF0.6388888888888888
aF0.6388888888888888
aF0.6388888888888888
aF0.6388888888888888
aF0.5555555555555556
aF0.6388888888888888
aF0.5
aF0.6111111111111112
aF0.6111111111111112
aF0.6111111111111112
aF0.5833333333333334
aF0.6388888888888888
asa(dp763
g38
(lp764
I0
aI0
aF0.5970149253731343
aF0.5671641791044776
aF0.5522388059701493
aF0.5970149253731343
aF0.582089552238806
aF0.5522388059701493
aF0.5373134328358209
aF0.5522388059701493
aF0.5373134328358209
aF0.6268656716417911
aF0.5074626865671642
aF0.5373134328358209
aF0.582089552238806
aF0.582089552238806
aF0.5074626865671642
aF0.582089552238806
aF0.582089552238806
aF0.5373134328358209
aF0.5970149253731343
aF0.5373134328358209
aF0.5373134328358209
aF0.6268656716417911
aF0.5671641791044776
aF0.5970149253731343
aF0.5522388059701493
aF0.6119402985074627
aF0.5671641791044776
aF0.5671641791044776
aF0.5970149253731343
aF0.6119402985074627
aF0.5074626865671642
aF0.582089552238806
aF0.5522388059701493
aF0.5970149253731343
aF0.582089552238806
aF0.6268656716417911
aF0.5671641791044776
aF0.5671641791044776
aF0.5074626865671642
asg164
(lp765
I0
aI0
aF0.6716417910447762
aF0.6567164179104478
aF0.7164179104477612
aF0.6567164179104478
aF0.7313432835820896
aF0.7164179104477612
aF0.6865671641791045
aF0.7313432835820896
aF0.7164179104477612
aF0.7313432835820896
aF0.6865671641791045
aF0.7313432835820896
aF0.6865671641791045
aF0.6865671641791045
aF0.746268656716418
aF0.7014925373134329
aF0.6865671641791045
aF0.6716417910447762
aF0.7164179104477612
aF0.7164179104477612
aF0.6567164179104478
aF0.7014925373134329
aF0.6567164179104478
aF0.6567164179104478
aF0.6119402985074627
aF0.6716417910447762
aF0.6865671641791045
aF0.7164179104477612
aF0.746268656716418
aF0.6567164179104478
aF0.7014925373134329
aF0.7014925373134329
aF0.6716417910447762
aF0.582089552238806
aF0.7313432835820896
aF0.5970149253731343
aF0.5970149253731343
aF0.6567164179104478
aF0.6268656716417911
asg285
(lp766
I0
aI0
aF0.7014925373134329
aF0.6567164179104478
aF0.5970149253731343
aF0.5522388059701493
aF0.5970149253731343
aF0.6567164179104478
aF0.6417910447761194
aF0.6119402985074627
aF0.7014925373134329
aF0.6119402985074627
aF0.7313432835820896
aF0.6567164179104478
aF0.582089552238806
aF0.6417910447761194
aF0.5373134328358209
aF0.6567164179104478
aF0.5373134328358209
aF0.7014925373134329
aF0.5223880597014925
aF0.6865671641791045
aF0.6268656716417911
aF0.6716417910447762
aF0.5970149253731343
aF0.5970149253731343
aF0.5671641791044776
aF0.6567164179104478
aF0.5970149253731343
aF0.5970149253731343
aF0.6417910447761194
aF0.5970149253731343
aF0.6268656716417911
aF0.6567164179104478
aF0.5522388059701493
aF0.7014925373134329
aF0.6567164179104478
aF0.6268656716417911
aF0.6268656716417911
aF0.6417910447761194
aF0.6567164179104478
asa(dp767
g18
(g12
S'\x00\x00\x00\x00\x00\x00\x00\x00'
p768
tp769
Rp770
(lp771
I0
aI0
ag18
(g42
S'\x87\xd4\x04\xe3\xad\xec\xe3?'
p772
tp773
Rp774
ag18
(g42
S'\xc1x+\xfb\x1cR\xe3?'
p775
tp776
Rp777
ag18
(g42
S'\xc1x+\xfb\x1cR\xe3?'
p778
tp779
Rp780
ag18
(g42
S'M0\xde\xca>\x87\xe4?'
p781
tp782
Rp783
ag18
(g42
S'\x87\xd4\x04\xe3\xad\xec\xe3?'
p784
tp785
Rp786
ag18
(g42
S'\x87\xd4\x04\xe3\xad\xec\xe3?'
p787
tp788
Rp789
ag18
(g42
S'\xc1x+\xfb\x1cR\xe3?'
p790
tp791
Rp792
ag18
(g42
S'5\xc1x+\xfb\x1c\xe2?'
p793
tp794
Rp795
ag18
(g42
S'\xfb\x1cR\x13\x8c\xb7\xe2?'
p796
tp797
Rp798
ag18
(g42
S'\x13\x8c\xb7\xb2\xcf!\xe5?'
p799
tp800
Rp801
ag18
(g42
S'\x87\xd4\x04\xe3\xad\xec\xe3?'
p802
tp803
Rp804
ag18
(g42
S'oe\x9fCj\x82\xe1?'
p805
tp806
Rp807
ag18
(g42
S'\xc1x+\xfb\x1cR\xe3?'
p808
tp809
Rp810
ag18
(g42
S'5\xc1x+\xfb\x1c\xe2?'
p811
tp812
Rp813
ag18
(g42
S'\xfb\x1cR\x13\x8c\xb7\xe2?'
p814
tp815
Rp816
ag18
(g42
S'\x13\x8c\xb7\xb2\xcf!\xe5?'
p817
tp818
Rp819
ag18
(g42
S'\xd9\xe7\x90\x9a`\xbc\xe5?'
p820
tp821
Rp822
ag18
(g42
S'\x87\xd4\x04\xe3\xad\xec\xe3?'
p823
tp824
Rp825
ag18
(g42
S'\xc1x+\xfb\x1cR\xe3?'
p826
tp827
Rp828
ag18
(g42
S'M0\xde\xca>\x87\xe4?'
p829
tp830
Rp831
ag18
(g42
S'\xc1x+\xfb\x1cR\xe3?'
p832
tp833
Rp834
ag18
(g42
S'M0\xde\xca>\x87\xe4?'
p835
tp836
Rp837
ag18
(g42
S'oe\x9fCj\x82\xe1?'
p838
tp839
Rp840
ag18
(g42
S'\xfb\x1cR\x13\x8c\xb7\xe2?'
p841
tp842
Rp843
ag18
(g42
S'\xd9\xe7\x90\x9a`\xbc\xe5?'
p844
tp845
Rp846
ag18
(g42
S'\xfb\x1cR\x13\x8c\xb7\xe2?'
p847
tp848
Rp849
ag18
(g42
S'5\xc1x+\xfb\x1c\xe2?'
p850
tp851
Rp852
ag18
(g42
S'\xc1x+\xfb\x1cR\xe3?'
p853
tp854
Rp855
ag18
(g42
S'\xa9\t\xc6[\xd9\xe7\xe0?'
p856
tp857
Rp858
ag18
(g42
S'\x87\xd4\x04\xe3\xad\xec\xe3?'
p859
tp860
Rp861
ag18
(g42
S'\xd9\xe7\x90\x9a`\xbc\xe5?'
p862
tp863
Rp864
ag18
(g42
S'\xd9\xe7\x90\x9a`\xbc\xe5?'
p865
tp866
Rp867
ag18
(g42
S'5\xc1x+\xfb\x1c\xe2?'
p868
tp869
Rp870
ag18
(g42
S'\xfb\x1cR\x13\x8c\xb7\xe2?'
p871
tp872
Rp873
ag18
(g42
S'\xd9\xe7\x90\x9a`\xbc\xe5?'
p874
tp875
Rp876
ag18
(g42
S'\x9fCj\x82\xf1V\xe6?'
p877
tp878
Rp879
ag18
(g42
S'\xe3\xad\xecsHM\xe0?'
p880
tp881
Rp882
ag18
(g42
S'\xd9\xe7\x90\x9a`\xbc\xe5?'
p883
tp884
Rp885
ag18
(g42
S'oe\x9fCj\x82\xe1?'
p886
tp887
Rp888
asg18
(g12
S'\x01\x00\x00\x00\x00\x00\x00\x00'
p889
tp890
Rp891
(lp892
I0
aI0
ag18
(g42
S'\xf6\xf5\xf5\xf5\xf5\xf5\xe5?'
p893
tp894
Rp895
ag18
(g42
S'\x97\x96\x96\x96\x96\x96\xe6?'
p896
tp897
Rp898
ag18
(g42
S'\xf6\xf5\xf5\xf5\xf5\xf5\xe5?'
p899
tp900
Rp901
ag18
(g42
S'\xf6\xf5\xf5\xf5\xf5\xf5\xe5?'
p902
tp903
Rp904
ag18
(g42
S'\x97\x96\x96\x96\x96\x96\xe6?'
p905
tp906
Rp907
ag18
(g42
S'yxxxxx\xe8?'
p908
tp909
Rp910
ag18
(g42
S'\xf6\xf5\xf5\xf5\xf5\xf5\xe5?'
p911
tp912
Rp913
ag18
(g42
S'\x97\x96\x96\x96\x96\x96\xe6?'
p914
tp915
Rp916
ag18
(g42
S'\xb5\xb4\xb4\xb4\xb4\xb4\xe4?'
p917
tp918
Rp919
ag18
(g42
S'\x19\x19\x19\x19\x19\x19\xe9?'
p920
tp921
Rp922
ag18
(g42
S'UUUUUU\xe5?'
p923
tp924
Rp925
ag18
(g42
S'\xb5\xb4\xb4\xb4\xb4\xb4\xe4?'
p926
tp927
Rp928
ag18
(g42
S'\xb5\xb4\xb4\xb4\xb4\xb4\xe4?'
p929
tp930
Rp931
ag18
(g42
S'\xb5\xb4\xb4\xb4\xb4\xb4\xe4?'
p932
tp933
Rp934
ag18
(g42
S'UUUUUU\xe5?'
p935
tp936
Rp937
ag18
(g42
S'\x14\x14\x14\x14\x14\x14\xe4?'
p938
tp939
Rp940
ag18
(g42
S'UUUUUU\xe5?'
p941
tp942
Rp943
ag18
(g42
S'UUUUUU\xe5?'
p944
tp945
Rp946
ag18
(g42
S'UUUUUU\xe5?'
p947
tp948
Rp949
ag18
(g42
S'\x97\x96\x96\x96\x96\x96\xe6?'
p950
tp951
Rp952
ag18
(g42
S'\x97\x96\x96\x96\x96\x96\xe6?'
p953
tp954
Rp955
ag18
(g42
S'777777\xe7?'
p956
tp957
Rp958
ag18
(g42
S'\xb5\xb4\xb4\xb4\xb4\xb4\xe4?'
p959
tp960
Rp961
ag18
(g42
S'\x97\x96\x96\x96\x96\x96\xe6?'
p962
tp963
Rp964
ag18
(g42
S'UUUUUU\xe5?'
p965
tp966
Rp967
ag18
(g42
S'\x97\x96\x96\x96\x96\x96\xe6?'
p968
tp969
Rp970
ag18
(g42
S'\xb5\xb4\xb4\xb4\xb4\xb4\xe4?'
p971
tp972
Rp973
ag18
(g42
S'\xf6\xf5\xf5\xf5\xf5\xf5\xe5?'
p974
tp975
Rp976
ag18
(g42
S'yxxxxx\xe8?'
p977
tp978
Rp979
ag18
(g42
S'\x14\x14\x14\x14\x14\x14\xe4?'
p980
tp981
Rp982
ag18
(g42
S'\xd8\xd7\xd7\xd7\xd7\xd7\xe7?'
p983
tp984
Rp985
ag18
(g42
S'\xb5\xb4\xb4\xb4\xb4\xb4\xe4?'
p986
tp987
Rp988
ag18
(g42
S'\xf6\xf5\xf5\xf5\xf5\xf5\xe5?'
p989
tp990
Rp991
ag18
(g42
S'\x14\x14\x14\x14\x14\x14\xe4?'
p992
tp993
Rp994
ag18
(g42
S'\xd8\xd7\xd7\xd7\xd7\xd7\xe7?'
p995
tp996
Rp997
ag18
(g42
S'\xf6\xf5\xf5\xf5\xf5\xf5\xe5?'
p998
tp999
Rp1000
ag18
(g42
S'UUUUUU\xe5?'
p1001
tp1002
Rp1003
ag18
(g42
S'777777\xe7?'
p1004
tp1005
Rp1006
ag18
(g42
S'\xf6\xf5\xf5\xf5\xf5\xf5\xe5?'
p1007
tp1008
Rp1009
asg18
(g12
S'\x02\x00\x00\x00\x00\x00\x00\x00'
p1010
tp1011
Rp1012
(lp1013
I0
aI0
ag18
(g42
S'38\x1f\x83\xf31\xe8?'
p1014
tp1015
Rp1016
ag18
(g42
S'\xa2v%jW\xa2\xe6?'
p1017
tp1018
Rp1019
ag18
(g42
S'K\xd4\xaeD\xedJ\xe4?'
p1020
tp1021
Rp1022
ag18
(g42
S'\xf418\x1f\x83\xf3\xe1?'
p1023
tp1024
Rp1025
ag18
(g42
S'\xdb\x95\xa8]\x89\xda\xe5?'
p1026
tp1027
Rp1028
ag18
(g42
S'\x13\xb5+Q\xbb\x12\xe5?'
p1029
tp1030
Rp1031
ag18
(g42
S'\x13\xb5+Q\xbb\x12\xe5?'
p1032
tp1033
Rp1034
ag18
(g42
S'\x13\xb5+Q\xbb\x12\xe5?'
p1035
tp1036
Rp1037
ag18
(g42
S'\xa2v%jW\xa2\xe6?'
p1038
tp1039
Rp1040
ag18
(g42
S'\x83\xf318\x1f\x83\xe3?'
p1041
tp1042
Rp1043
ag18
(g42
S'jW\xa2v%j\xe7?'
p1044
tp1045
Rp1046
ag18
(g42
S'\x13\xb5+Q\xbb\x12\xe5?'
p1047
tp1048
Rp1049
ag18
(g42
S'\xa2v%jW\xa2\xe6?'
p1050
tp1051
Rp1052
ag18
(g42
S'\xdb\x95\xa8]\x89\xda\xe5?'
p1053
tp1054
Rp1055
ag18
(g42
S'\xdb\x95\xa8]\x89\xda\xe5?'
p1056
tp1057
Rp1058
ag18
(g42
S'K\xd4\xaeD\xedJ\xe4?'
p1059
tp1060
Rp1061
ag18
(g42
S'K\xd4\xaeD\xedJ\xe4?'
p1062
tp1063
Rp1064
ag18
(g42
S'\xdb\x95\xa8]\x89\xda\xe5?'
p1065
tp1066
Rp1067
ag18
(g42
S'\xdb\x95\xa8]\x89\xda\xe5?'
p1068
tp1069
Rp1070
ag18
(g42
S'\xdb\x95\xa8]\x89\xda\xe5?'
p1071
tp1072
Rp1073
ag18
(g42
S'\x83\xf318\x1f\x83\xe3?'
p1074
tp1075
Rp1076
ag18
(g42
S'\xdb\x95\xa8]\x89\xda\xe5?'
p1077
tp1078
Rp1079
ag18
(g42
S'\xdb\x95\xa8]\x89\xda\xe5?'
p1080
tp1081
Rp1082
ag18
(g42
S'\xa2v%jW\xa2\xe6?'
p1083
tp1084
Rp1085
ag18
(g42
S'\xbb\x12\xb5+Q\xbb\xe2?'
p1086
tp1087
Rp1088
ag18
(g42
S'\x83\xf318\x1f\x83\xe3?'
p1089
tp1090
Rp1091
ag18
(g42
S'\xdb\x95\xa8]\x89\xda\xe5?'
p1092
tp1093
Rp1094
ag18
(g42
S'\x13\xb5+Q\xbb\x12\xe5?'
p1095
tp1096
Rp1097
ag18
(g42
S'\xa2v%jW\xa2\xe6?'
p1098
tp1099
Rp1100
ag18
(g42
S'\x83\xf318\x1f\x83\xe3?'
p1101
tp1102
Rp1103
ag18
(g42
S'\xdb\x95\xa8]\x89\xda\xe5?'
p1104
tp1105
Rp1106
ag18
(g42
S'\xbb\x12\xb5+Q\xbb\xe2?'
p1107
tp1108
Rp1109
ag18
(g42
S'\x83\xf318\x1f\x83\xe3?'
p1110
tp1111
Rp1112
ag18
(g42
S'\xa2v%jW\xa2\xe6?'
p1113
tp1114
Rp1115
ag18
(g42
S'\x83\xf318\x1f\x83\xe3?'
p1116
tp1117
Rp1118
ag18
(g42
S'\xdb\x95\xa8]\x89\xda\xe5?'
p1119
tp1120
Rp1121
ag18
(g42
S'K\xd4\xaeD\xedJ\xe4?'
p1122
tp1123
Rp1124
ag18
(g42
S'K\xd4\xaeD\xedJ\xe4?'
p1125
tp1126
Rp1127
ag18
(g42
S'jW\xa2v%j\xe7?'
p1128
tp1129
Rp1130
asa(dp1131
g770
(lp1132
I0
aI0
ag18
(g42
S'\x87\xd4\x04\xe3\xad\xec\xe3?'
p1133
tp1134
Rp1135
ag18
(g42
S'\x07\x06k\x81\xccO\xe3?'
p1136
tp1137
Rp1138
ag18
(g42
S'\xc1x+\xfb\x1cR\xe3?'
p1139
tp1140
Rp1141
ag18
(g42
S'M0\xde\xca>\x87\xe4?'
p1142
tp1143
Rp1144
ag18
(g42
S'\x87\xd4\x04\xe3\xad\xec\xe3?'
p1145
tp1146
Rp1147
ag18
(g42
S'\x87\xd4\x04\xe3\xad\xec\xe3?'
p1148
tp1149
Rp1150
ag18
(g42
S'\xc1x+\xfb\x1cR\xe3?'
p1151
tp1152
Rp1153
ag18
(g42
S'5\xc1x+\xfb\x1c\xe2?'
p1154
tp1155
Rp1156
ag18
(g42
S'\xd09\xc5\x0c \xb5\xe2?'
p1157
tp1158
Rp1159
ag18
(g42
S'\x07\x18\x8ag\xd4\x1f\xe5?'
p1160
tp1161
Rp1162
ag18
(g42
S'\x87\xd4\x04\xe3\xad\xec\xe3?'
p1163
tp1164
Rp1165
ag18
(g42
S'\xb4\xcab\xdf\xc5\x7f\xe1?'
p1166
tp1167
Rp1168
ag18
(g42
S'\x93 \xea\x8d+K\xe3?'
p1169
tp1170
Rp1171
ag18
(g42
S'\x8a\xda\xdbv`\x15\xe2?'
p1172
tp1173
Rp1174
ag18
(g42
S'\x96\x0c(\xafB\xb0\xe2?'
p1175
tp1176
Rp1177
ag18
(g42
S'\x07\x18\x8ag\xd4\x1f\xe5?'
p1178
tp1179
Rp1180
ag18
(g42
S'\xd9\xe7\x90\x9a`\xbc\xe5?'
p1181
tp1182
Rp1183
ag18
(g42
S'\x9f\xc5\x98\x13\x0e\xe6\xe3?'
p1184
tp1185
Rp1186
ag18
(g42
S'\x93 \xea\x8d+K\xe3?'
p1187
tp1188
Rp1189
ag18
(g42
S'hB<\xbe&\x85\xe4?'
p1190
tp1191
Rp1192
ag18
(g42
S'*\xc5\xb3\xda*D\xe3?'
p1193
tp1194
Rp1195
ag18
(g42
S'M0\xde\xca>\x87\xe4?'
p1196
tp1197
Rp1198
ag18
(g42
S'\xaaA\xcfQ\x84r\xe1?'
p1199
tp1200
Rp1201
ag18
(g42
S'0\xfc\xfdJ\xf9\xa8\xe2?'
p1202
tp1203
Rp1204
ag18
(g42
S'\xa8bH\x80\x16\xb1\xe5?'
p1205
tp1206
Rp1207
ag18
(g42
S'0\xfc\xfdJ\xf9\xa8\xe2?'
p1208
tp1209
Rp1210
ag18
(g42
S'lv\xe9\x07\xb5\r\xe2?'
p1211
tp1212
Rp1213
ag18
(g42
S'\xc1x+\xfb\x1cR\xe3?'
p1214
tp1215
Rp1216
ag18
(g42
S'E\x8d\xc8\x07\x18\xe5\xe0?'
p1217
tp1218
Rp1219
ag18
(g42
S'\x87\xd4\x04\xe3\xad\xec\xe3?'
p1220
tp1221
Rp1222
ag18
(g42
S'b\xaaQ<\xf3\x9f\xe5?'
p1223
tp1224
Rp1225
ag18
(g42
S'b\xaaQ<\xf3\x9f\xe5?'
p1226
tp1227
Rp1228
ag18
(g42
S'\xa7\xc9\x99Dr\x1a\xe2?'
p1229
tp1230
Rp1231
ag18
(g42
S'\x96\x0c(\xafB\xb0\xe2?'
p1232
tp1233
Rp1234
ag18
(g42
S'\xa9\xac\x06\xbc\xc1\xb6\xe5?'
p1235
tp1236
Rp1237
ag18
(g42
S'\x9fCj\x82\xf1V\xe6?'
p1238
tp1239
Rp1240
ag18
(g42
S'\x99[\x00\xb2kJ\xe0?'
p1241
tp1242
Rp1243
ag18
(g42
S'b\xaaQ<\xf3\x9f\xe5?'
p1244
tp1245
Rp1246
ag18
(g42
S'\x8cS\xb7Jwz\xe1?'
p1247
tp1248
Rp1249
asg891
(lp1250
I0
aI0
ag18
(g42
S'\xf6\xf5\xf5\xf5\xf5\xf5\xe5?'
p1251
tp1252
Rp1253
ag18
(g42
S'\x1csP^\xf2\x83\xe6?'
p1254
tp1255
Rp1256
ag18
(g42
S'b\xf1d\xf5\xa9\xcb\xe5?'
p1257
tp1258
Rp1259
ag18
(g42
S'\xf6\xf5\xf5\xf5\xf5\xf5\xe5?'
p1260
tp1261
Rp1262
ag18
(g42
S'\x88\xb0D\x92\xbb\x94\xe6?'
p1263
tp1264
Rp1265
ag18
(g42
S'\xb2\xc9C\xe5\xfcv\xe8?'
p1266
tp1267
Rp1268
ag18
(g42
S'\xf6\xf5\xf5\xf5\xf5\xf5\xe5?'
p1269
tp1270
Rp1271
ag18
(g42
S'\x81\xb4\x9fAg\x8b\xe6?'
p1272
tp1273
Rp1274
ag18
(g42
S'\x99\xc7\xca\x08B\x9e\xe4?'
p1275
tp1276
Rp1277
ag18
(g42
S'\xba\xc5\x98\xc0\xbc\x17\xe9?'
p1278
tp1279
Rp1280
ag18
(g42
S'_\x99N9\xa8H\xe5?'
p1281
tp1282
Rp1283
ag18
(g42
S'\x99\xc7\xca\x08B\x9e\xe4?'
p1284
tp1285
Rp1286
ag18
(g42
S'Y\x03\xaeX\x03\xae\xe4?'
p1287
tp1288
Rp1289
ag18
(g42
S'\x99\xc7\xca\x08B\x9e\xe4?'
p1290
tp1291
Rp1292
ag18
(g42
S'_\x99N9\xa8H\xe5?'
p1293
tp1294
Rp1295
ag18
(g42
S'\x7f\xb7E)b\xf0\xe3?'
p1296
tp1297
Rp1298
ag18
(g42
S'\xee\xa5\x1a\xfb:S\xe5?'
p1299
tp1300
Rp1301
ag18
(g42
S'_\x99N9\xa8H\xe5?'
p1302
tp1303
Rp1304
ag18
(g42
S'WSYMe5\xe5?'
p1305
tp1306
Rp1307
ag18
(g42
S'-\xeflqhz\xe6?'
p1308
tp1309
Rp1310
ag18
(g42
S'\x81\xb4\x9fAg\x8b\xe6?'
p1311
tp1312
Rp1313
ag18
(g42
S'btN\x9a\x022\xe7?'
p1314
tp1315
Rp1316
ag18
(g42
S'Y\x03\xaeX\x03\xae\xe4?'
p1317
tp1318
Rp1319
ag18
(g42
S'k\xe4\xa0\x89\x05\x91\xe6?'
p1320
tp1321
Rp1322
ag18
(g42
S'#G\xa5F\x06O\xe5?'
p1323
tp1324
Rp1325
ag18
(g42
S'\x88\xb0D\x92\xbb\x94\xe6?'
p1326
tp1327
Rp1328
ag18
(g42
S'\xb5\xb4\xb4\xb4\xb4\xb4\xe4?'
p1329
tp1330
Rp1331
ag18
(g42
S'2#\xed\xce\x01\xe2\xe5?'
p1332
tp1333
Rp1334
ag18
(g42
S'\t\xb5\x0bx\xbfX\xe8?'
p1335
tp1336
Rp1337
ag18
(g42
S'W\x9b\xf0c\xba\x11\xe4?'
p1338
tp1339
Rp1340
ag18
(g42
S'\xa3\xcf\xf0I&\xce\xe7?'
p1341
tp1342
Rp1343
ag18
(g42
S'\xb5\xb4\xb4\xb4\xb4\xb4\xe4?'
p1344
tp1345
Rp1346
ag18
(g42
S'\xdd;~\xf9\x02\xf0\xe5?'
p1347
tp1348
Rp1349
ag18
(g42
S'\xdc\xa9\xa9\x03\x07\r\xe4?'
p1350
tp1351
Rp1352
ag18
(g42
S'\x06\x8b\x80\x95k\xbf\xe7?'
p1353
tp1354
Rp1355
ag18
(g42
S'\xf6\xf5\xf5\xf5\xf5\xf5\xe5?'
p1356
tp1357
Rp1358
ag18
(g42
S'UUUUUU\xe5?'
p1359
tp1360
Rp1361
ag18
(g42
S'777777\xe7?'
p1362
tp1363
Rp1364
ag18
(g42
S'CbZ\xdc\xfb\xf3\xe5?'
p1365
tp1366
Rp1367
asg1012
(lp1368
I0
aI0
ag18
(g42
S'"\xdc\xee\xa3\xcf \xe8?'
p1369
tp1370
Rp1371
ag18
(g42
S'\xa2v%jW\xa2\xe6?'
p1372
tp1373
Rp1374
ag18
(g42
S'\xa58g\x83 R\xe4?'
p1375
tp1376
Rp1377
ag18
(g42
S'\xf418\x1f\x83\xf3\xe1?'
p1378
tp1379
Rp1380
ag18
(g42
S'\xd0G\x95\x03\x10\xd1\xe5?'
p1381
tp1382
Rp1383
ag18
(g42
S'\xfb\x00\xe8K\xbc\xfa\xe4?'
p1384
tp1385
Rp1386
ag18
(g42
S'\xfb\x00\xe8K\xbc\xfa\xe4?'
p1387
tp1388
Rp1389
ag18
(g42
S'\xfb\x00\xe8K\xbc\xfa\xe4?'
p1390
tp1391
Rp1392
ag18
(g42
S'\x8dn\xeb\xf7\xc5\x8d\xe6?'
p1393
tp1394
Rp1395
ag18
(g42
S'\xed\xb6}\x10\x98\x8e\xe3?'
p1396
tp1397
Rp1398
ag18
(g42
S'\xcc\xee^o\x86I\xe7?'
p1399
tp1400
Rp1401
ag18
(g42
S'\x10\x00n\x0e\xc5\x1c\xe5?'
p1402
tp1403
Rp1404
ag18
(g42
S'2I^\x0c\xf2\xaa\xe6?'
p1405
tp1406
Rp1407
ag18
(g42
S'JdH\xd8\xc6\xe0\xe5?'
p1408
tp1409
Rp1410
ag18
(g42
S'JdH\xd8\xc6\xe0\xe5?'
p1411
tp1412
Rp1413
ag18
(g42
S'\xa58g\x83 R\xe4?'
p1414
tp1415
Rp1416
ag18
(g42
S'\x83\x1a\xf6Y\xa6U\xe4?'
p1417
tp1418
Rp1419
ag18
(g42
S'\xd0G\x95\x03\x10\xd1\xe5?'
p1420
tp1421
Rp1422
ag18
(g42
S'JdH\xd8\xc6\xe0\xe5?'
p1423
tp1424
Rp1425
ag18
(g42
S'\xd0G\x95\x03\x10\xd1\xe5?'
p1426
tp1427
Rp1428
ag18
(g42
S'\xed\xb6}\x10\x98\x8e\xe3?'
p1429
tp1430
Rp1431
ag18
(g42
S'JdH\xd8\xc6\xe0\xe5?'
p1432
tp1433
Rp1434
ag18
(g42
S'e\xd4\xfb\xf7\xfb\xb3\xe5?'
p1435
tp1436
Rp1437
ag18
(g42
S'\xa2v%jW\xa2\xe6?'
p1438
tp1439
Rp1440
ag18
(g42
S'\x00\r\x86.z\xc3\xe2?'
p1441
tp1442
Rp1443
ag18
(g42
S'\xed\xb6}\x10\x98\x8e\xe3?'
p1444
tp1445
Rp1446
ag18
(g42
S'e\xd4\xfb\xf7\xfb\xb3\xe5?'
p1447
tp1448
Rp1449
ag18
(g42
S'\xfb\x00\xe8K\xbc\xfa\xe4?'
p1450
tp1451
Rp1452
ag18
(g42
S'\xa2v%jW\xa2\xe6?'
p1453
tp1454
Rp1455
ag18
(g42
S'\x83\xf318\x1f\x83\xe3?'
p1456
tp1457
Rp1458
ag18
(g42
S'JdH\xd8\xc6\xe0\xe5?'
p1459
tp1460
Rp1461
ag18
(g42
S'\x00\r\x86.z\xc3\xe2?'
p1462
tp1463
Rp1464
ag18
(g42
S'\xed\xb6}\x10\x98\x8e\xe3?'
p1465
tp1466
Rp1467
ag18
(g42
S'mN\xc6\xe6dl\xe6?'
p1468
tp1469
Rp1470
ag18
(g42
S'\x83\xf318\x1f\x83\xe3?'
p1471
tp1472
Rp1473
ag18
(g42
S'\xd0G\x95\x03\x10\xd1\xe5?'
p1474
tp1475
Rp1476
ag18
(g42
S'\xa58g\x83 R\xe4?'
p1477
tp1478
Rp1479
ag18
(g42
S'\xa58g\x83 R\xe4?'
p1480
tp1481
Rp1482
ag18
(g42
S'N\xda\x1b>!b\xe7?'
p1483
tp1484
Rp1485
asa(dp1486
g770
(lp1487
I0
aI0
aF0.6296296296296297
aF0.6296296296296297
aF0.5925925925925926
aF0.6296296296296297
aF0.6296296296296297
aF0.6296296296296297
aF0.5925925925925926
aF0.5555555555555556
aF0.5555555555555556
aF0.6296296296296297
aF0.6296296296296297
aF0.5185185185185185
aF0.5555555555555556
aF0.5185185185185185
aF0.6296296296296297
aF0.6296296296296297
aF0.6666666666666666
aF0.6666666666666666
aF0.5555555555555556
aF0.6666666666666666
aF0.6666666666666666
aF0.6296296296296297
aF0.48148148148148145
aF0.5185185185185185
aF0.7407407407407407
aF0.5185185185185185
aF0.6296296296296297
aF0.5925925925925926
aF0.5555555555555556
aF0.6296296296296297
aF0.7777777777777778
aF0.7777777777777778
aF0.5925925925925926
aF0.6296296296296297
aF0.6296296296296297
aF0.7037037037037037
aF0.48148148148148145
aF0.7777777777777778
aF0.5925925925925926
asg891
(lp1488
I0
aI0
aF0.68
aF0.8
aF0.56
aF0.68
aF0.68
aF0.8
aF0.68
aF0.64
aF0.56
aF0.76
aF0.6
aF0.56
aF0.6
aF0.56
aF0.6
aF0.52
aF0.64
aF0.6
aF0.56
aF0.6
aF0.64
aF0.68
aF0.6
aF0.76
aF0.72
aF0.68
aF0.64
aF0.6
aF0.64
aF0.6
aF0.68
aF0.64
aF0.64
aF0.68
aF0.64
aF0.68
aF0.68
aF0.72
aF0.72
asg1012
(lp1489
I0
aI0
aF0.6666666666666666
aF0.6666666666666666
aF0.6111111111111112
aF0.5
aF0.6111111111111112
aF0.5555555555555556
aF0.5555555555555556
aF0.5555555555555556
aF0.6111111111111112
aF0.6111111111111112
aF0.6111111111111112
aF0.6666666666666666
aF0.7222222222222222
aF0.6666666666666666
aF0.6666666666666666
aF0.6111111111111112
aF0.6666666666666666
aF0.6111111111111112
aF0.6666666666666666
aF0.6111111111111112
aF0.6111111111111112
aF0.6666666666666666
aF0.5555555555555556
aF0.6666666666666666
aF0.5555555555555556
aF0.6111111111111112
aF0.5555555555555556
aF0.5555555555555556
aF0.6666666666666666
aF0.5555555555555556
aF0.6666666666666666
aF0.5555555555555556
aF0.6111111111111112
aF0.5555555555555556
aF0.5555555555555556
aF0.6111111111111112
aF0.6111111111111112
aF0.6111111111111112
aF0.6666666666666666
asa(dp1490
g770
(lp1491
I0
aI0
aF0.6153846153846154
aF0.5769230769230769
aF0.6153846153846154
aF0.6538461538461539
aF0.6153846153846154
aF0.6153846153846154
aF0.6153846153846154
aF0.5769230769230769
aF0.6153846153846154
aF0.6923076923076923
aF0.6153846153846154
aF0.5769230769230769
aF0.6538461538461539
aF0.6153846153846154
aF0.5384615384615384
aF0.6923076923076923
aF0.6923076923076923
aF0.5769230769230769
aF0.6538461538461539
aF0.6153846153846154
aF0.5384615384615384
aF0.6538461538461539
aF0.6153846153846154
aF0.6538461538461539
aF0.6153846153846154
aF0.6538461538461539
aF0.5
aF0.6153846153846154
aF0.5
aF0.6153846153846154
aF0.5769230769230769
aF0.5769230769230769
aF0.5384615384615384
aF0.5384615384615384
aF0.7307692307692307
aF0.6923076923076923
aF0.5384615384615384
aF0.5769230769230769
aF0.5
asg891
(lp1492
I0
aI0
aF0.6923076923076923
aF0.6153846153846154
aF0.8076923076923077
aF0.6923076923076923
aF0.7307692307692307
aF0.7307692307692307
aF0.6923076923076923
aF0.7692307692307693
aF0.7307692307692307
aF0.8076923076923077
aF0.7307692307692307
aF0.7307692307692307
aF0.6923076923076923
aF0.7307692307692307
aF0.7307692307692307
aF0.7307692307692307
aF0.6923076923076923
aF0.7307692307692307
aF0.7692307692307693
aF0.8076923076923077
aF0.7692307692307693
aF0.7692307692307693
aF0.6923076923076923
aF0.6538461538461539
aF0.6153846153846154
aF0.7307692307692307
aF0.6538461538461539
aF0.7692307692307693
aF0.8846153846153846
aF0.6538461538461539
aF0.8076923076923077
aF0.6538461538461539
aF0.7307692307692307
aF0.5769230769230769
aF0.8461538461538461
aF0.6923076923076923
aF0.6538461538461539
aF0.7307692307692307
aF0.6538461538461539
asg1012
(lp1493
I0
aI0
aF0.8260869565217391
aF0.7391304347826086
aF0.6521739130434783
aF0.6086956521739131
aF0.7391304347826086
aF0.7391304347826086
aF0.7391304347826086
aF0.7391304347826086
aF0.782608695652174
aF0.6086956521739131
aF0.8260869565217391
aF0.6521739130434783
aF0.6956521739130435
aF0.6956521739130435
aF0.6956521739130435
aF0.6521739130434783
aF0.6086956521739131
aF0.7391304347826086
aF0.6956521739130435
aF0.7391304347826086
aF0.6086956521739131
aF0.6956521739130435
aF0.782608695652174
aF0.7391304347826086
aF0.6086956521739131
aF0.6086956521739131
aF0.782608695652174
aF0.7391304347826086
aF0.7391304347826086
aF0.6521739130434783
aF0.6956521739130435
aF0.6086956521739131
aF0.6086956521739131
aF0.8260869565217391
aF0.6521739130434783
aF0.7391304347826086
aF0.6521739130434783
aF0.6521739130434783
aF0.782608695652174
asa(dp1494
g21
(lp1495
F0.2692307692307693
aF0.3076923076923077
aF0.3076923076923077
aF0.3076923076923077
aF0.3076923076923077
aF0.34615384615384615
aF0.34615384615384615
aF0.34615384615384615
aF0.34615384615384615
aF0.34615384615384615
aF0.34615384615384615
aF0.3846153846153846
aF0.3846153846153846
aF0.3846153846153846
aF0.3846153846153846
aF0.3846153846153846
aF0.3846153846153846
aF0.3846153846153846
aF0.3846153846153846
aF0.3846153846153846
aF0.3846153846153846
aF0.3846153846153846
aF0.3846153846153846
aF0.3846153846153846
aF0.42307692307692313
aF0.42307692307692313
aF0.42307692307692313
aF0.42307692307692313
aF0.42307692307692313
aF0.42307692307692313
aF0.42307692307692313
aF0.46153846153846156
aF0.46153846153846156
aF0.46153846153846156
aF0.46153846153846156
aF0.46153846153846156
aF0.5
aF0.5
aF0.5
asg25
(lp1496
F0.11538461538461542
aF0.15384615384615385
aF0.1923076923076923
aF0.1923076923076923
aF0.1923076923076923
aF0.1923076923076923
aF0.23076923076923073
aF0.23076923076923073
aF0.23076923076923073
aF0.23076923076923073
aF0.23076923076923073
aF0.2692307692307693
aF0.2692307692307693
aF0.2692307692307693
aF0.2692307692307693
aF0.2692307692307693
aF0.2692307692307693
aF0.2692307692307693
aF0.2692307692307693
aF0.2692307692307693
aF0.2692307692307693
aF0.2692307692307693
aF0.2692307692307693
aF0.3076923076923077
aF0.3076923076923077
aF0.3076923076923077
aF0.3076923076923077
aF0.3076923076923077
aF0.3076923076923077
aF0.3076923076923077
aF0.34615384615384615
aF0.34615384615384615
aF0.34615384615384615
aF0.34615384615384615
aF0.34615384615384615
aF0.34615384615384615
aF0.3846153846153846
aF0.3846153846153846
aF0.42307692307692313
asg29
(lp1497
F0.17391304347826086
aF0.17391304347826086
aF0.17391304347826086
aF0.21739130434782605
aF0.21739130434782605
aF0.21739130434782605
aF0.21739130434782605
aF0.26086956521739135
aF0.26086956521739135
aF0.26086956521739135
aF0.26086956521739135
aF0.26086956521739135
aF0.26086956521739135
aF0.26086956521739135
aF0.26086956521739135
aF0.26086956521739135
aF0.26086956521739135
aF0.26086956521739135
aF0.30434782608695654
aF0.30434782608695654
aF0.30434782608695654
aF0.30434782608695654
aF0.30434782608695654
aF0.30434782608695654
aF0.34782608695652173
aF0.34782608695652173
aF0.34782608695652173
aF0.34782608695652173
aF0.34782608695652173
aF0.34782608695652173
aF0.34782608695652173
aF0.3913043478260869
aF0.3913043478260869
aF0.3913043478260869
aF0.3913043478260869
aF0.3913043478260869
aF0.3913043478260869
aF0.3913043478260869
aF0.3913043478260869
asa(dp1498
g21
(lp1499
F0.6296296296296297
aF0.6296296296296297
aF0.6296296296296297
aF0.6666666666666666
aF0.7037037037037037
aF0.5185185185185185
aF0.5185185185185185
aF0.5555555555555556
aF0.5555555555555556
aF0.6296296296296297
aF0.6296296296296297
aF0.48148148148148145
aF0.5185185185185185
aF0.5555555555555556
aF0.5925925925925926
aF0.5925925925925926
aF0.5925925925925926
aF0.6296296296296297
aF0.6296296296296297
aF0.6296296296296297
aF0.6296296296296297
aF0.6296296296296297
aF0.6666666666666666
aF0.7407407407407407
aF0.5185185185185185
aF0.5555555555555556
aF0.6296296296296297
aF0.6666666666666666
aF0.7777777777777778
aF0.7777777777777778
aF0.7777777777777778
aF0.48148148148148145
aF0.5925925925925926
aF0.6296296296296297
aF0.6296296296296297
aF0.6666666666666666
aF0.5555555555555556
aF0.5925925925925926
aF0.6296296296296297
asg25
(lp1500
F0.64
aF0.64
aF0.56
aF0.6
aF0.68
aF0.76
aF0.56
aF0.6
aF0.64
aF0.64
aF0.68
aF0.52
aF0.56
aF0.56
aF0.56
aF0.6
aF0.6
aF0.6
aF0.64
aF0.68
aF0.68
aF0.72
aF0.8
aF0.6
aF0.6
aF0.64
aF0.68
aF0.68
aF0.68
aF0.68
aF0.6
aF0.64
aF0.64
aF0.68
aF0.72
aF0.76
aF0.72
aF0.8
aF0.68
asg29
(lp1501
F0.5555555555555556
aF0.6111111111111112
aF0.6666666666666666
aF0.5555555555555556
aF0.5555555555555556
aF0.6111111111111112
aF0.6666666666666666
aF0.5555555555555556
aF0.5555555555555556
aF0.5555555555555556
aF0.5555555555555556
aF0.6111111111111112
aF0.6111111111111112
aF0.6111111111111112
aF0.6111111111111112
aF0.6666666666666666
aF0.6666666666666666
aF0.6666666666666666
aF0.6666666666666666
aF0.6666666666666666
aF0.6666666666666666
aF0.6666666666666666
aF0.6666666666666666
aF0.7222222222222222
aF0.5555555555555556
aF0.5555555555555556
aF0.6111111111111112
aF0.6111111111111112
aF0.6111111111111112
aF0.6111111111111112
aF0.6666666666666666
aF0.5
aF0.5555555555555556
aF0.5555555555555556
aF0.6111111111111112
aF0.6111111111111112
aF0.6111111111111112
aF0.6111111111111112
aF0.6666666666666666
asaI3
a.