(lp0
S'noCV'
p1
acnumpy.core.multiarray
_reconstruct
p2
(cnumpy
ndarray
p3
(I0
tp4
S'b'
p5
tp6
Rp7
(I1
(I39
tp8
cnumpy
dtype
p9
(S'i8'
p10
I0
I1
tp11
Rp12
(I3
S'<'
p13
NNNI-1
I-1
I0
tp14
bI00
S'\x02\x00\x00\x00\x00\x00\x00\x00\x03\x00\x00\x00\x00\x00\x00\x00\x04\x00\x00\x00\x00\x00\x00\x00\x05\x00\x00\x00\x00\x00\x00\x00\x06\x00\x00\x00\x00\x00\x00\x00\x07\x00\x00\x00\x00\x00\x00\x00\x08\x00\x00\x00\x00\x00\x00\x00\t\x00\x00\x00\x00\x00\x00\x00\n\x00\x00\x00\x00\x00\x00\x00\x0b\x00\x00\x00\x00\x00\x00\x00\x0c\x00\x00\x00\x00\x00\x00\x00\r\x00\x00\x00\x00\x00\x00\x00\x0e\x00\x00\x00\x00\x00\x00\x00\x0f\x00\x00\x00\x00\x00\x00\x00\x10\x00\x00\x00\x00\x00\x00\x00\x11\x00\x00\x00\x00\x00\x00\x00\x12\x00\x00\x00\x00\x00\x00\x00\x13\x00\x00\x00\x00\x00\x00\x00\x14\x00\x00\x00\x00\x00\x00\x00\x15\x00\x00\x00\x00\x00\x00\x00\x16\x00\x00\x00\x00\x00\x00\x00\x17\x00\x00\x00\x00\x00\x00\x00\x18\x00\x00\x00\x00\x00\x00\x00\x19\x00\x00\x00\x00\x00\x00\x00\x1a\x00\x00\x00\x00\x00\x00\x00\x1b\x00\x00\x00\x00\x00\x00\x00\x1c\x00\x00\x00\x00\x00\x00\x00\x1d\x00\x00\x00\x00\x00\x00\x00\x1e\x00\x00\x00\x00\x00\x00\x00\x1f\x00\x00\x00\x00\x00\x00\x00 \x00\x00\x00\x00\x00\x00\x00!\x00\x00\x00\x00\x00\x00\x00"\x00\x00\x00\x00\x00\x00\x00#\x00\x00\x00\x00\x00\x00\x00$\x00\x00\x00\x00\x00\x00\x00%\x00\x00\x00\x00\x00\x00\x00&\x00\x00\x00\x00\x00\x00\x00\'\x00\x00\x00\x00\x00\x00\x00(\x00\x00\x00\x00\x00\x00\x00'
p15
tp16
baI1
a(dp17
I10
(lp18
F0.31840796019900497
aF0.31840796019900497
aF0.3233830845771144
aF0.3383084577114428
aF0.3383084577114428
aF0.34825870646766166
aF0.34825870646766166
aF0.3532338308457711
aF0.3532338308457711
aF0.35820895522388063
aF0.35820895522388063
aF0.3681592039800995
aF0.3681592039800995
aF0.3681592039800995
aF0.3731343283582089
aF0.37810945273631846
aF0.3830845771144279
aF0.3880597014925373
aF0.39303482587064675
aF0.39303482587064675
aF0.3980099502487562
aF0.4029850746268657
aF0.4029850746268657
aF0.4029850746268657
aF0.40796019900497515
aF0.417910447761194
aF0.417910447761194
aF0.427860696517413
aF0.48258706467661694
aF0.4925373134328358
aF0.49751243781094523
aF0.5124378109452736
aF0.5124378109452736
aF0.5223880597014925
aF0.5223880597014925
aF0.5373134328358209
aF0.5422885572139303
aF0.5572139303482587
aF0.572139303482587
asI5
(lp19
F0.30348258706467657
aF0.32835820895522383
aF0.3383084577114428
aF0.3383084577114428
aF0.3532338308457711
aF0.35820895522388063
aF0.36318407960199006
aF0.3731343283582089
aF0.3731343283582089
aF0.3731343283582089
aF0.37810945273631846
aF0.37810945273631846
aF0.3830845771144279
aF0.3880597014925373
aF0.39303482587064675
aF0.39303482587064675
aF0.39303482587064675
aF0.3980099502487562
aF0.40796019900497515
aF0.40796019900497515
aF0.4129353233830846
aF0.417910447761194
aF0.42288557213930345
aF0.42288557213930345
aF0.427860696517413
aF0.427860696517413
aF0.4427860696517413
aF0.45273631840796025
aF0.48258706467661694
aF0.5024875621890548
aF0.5074626865671642
aF0.5124378109452736
aF0.5323383084577115
aF0.5422885572139303
aF0.5572139303482587
aF0.5621890547263682
aF0.572139303482587
aF0.5771144278606966
aF0.6119402985074627
asI7
(lp20
F0.28358208955223885
aF0.3084577114427861
aF0.31840796019900497
aF0.33333333333333337
aF0.3383084577114428
aF0.3383084577114428
aF0.34328358208955223
aF0.34328358208955223
aF0.34825870646766166
aF0.34825870646766166
aF0.35820895522388063
aF0.36318407960199006
aF0.36318407960199006
aF0.3681592039800995
aF0.3731343283582089
aF0.3731343283582089
aF0.3731343283582089
aF0.3880597014925373
aF0.39303482587064675
aF0.3980099502487562
aF0.3980099502487562
aF0.4029850746268657
aF0.4129353233830846
aF0.417910447761194
aF0.42288557213930345
aF0.427860696517413
aF0.43781094527363185
aF0.4577114427860697
aF0.48756218905472637
aF0.49751243781094523
aF0.5024875621890548
aF0.5074626865671642
aF0.527363184079602
aF0.5373134328358209
aF0.5572139303482587
aF0.5572139303482587
aF0.5621890547263682
aF0.572139303482587
aF0.5870646766169154
asa(dp21
I10
(lp22
F0.5648148148148148
aF0.6296296296296297
aF0.6018518518518519
aF0.6203703703703703
aF0.6944444444444444
aF0.6388888888888888
aF0.75
aF0.6666666666666666
aF0.7222222222222222
aF0.5925925925925926
aF0.7314814814814815
aF0.6574074074074074
aF0.7037037037037037
aF0.7314814814814815
aF0.6759259259259259
aF0.7222222222222222
aF0.6666666666666666
aF0.6388888888888888
aF0.6203703703703703
aF0.6666666666666666
aF0.6203703703703703
aF0.6759259259259259
aF0.7037037037037037
aF0.7222222222222222
aF0.6574074074074074
aF0.6574074074074074
aF0.6944444444444444
aF0.7314814814814815
aF0.7685185185185185
aF0.7777777777777778
aF0.7407407407407407
aF0.6851851851851852
aF0.7777777777777778
aF0.6759259259259259
aF0.7407407407407407
aF0.7592592592592593
aF0.6944444444444444
aF0.6851851851851852
aF0.7962962962962963
asI5
(lp23
F0.6388888888888888
aF0.6203703703703703
aF0.6944444444444444
aF0.7314814814814815
aF0.5925925925925926
aF0.6203703703703703
aF0.6388888888888888
aF0.6203703703703703
aF0.6666666666666666
aF0.7407407407407407
aF0.6851851851851852
aF0.7314814814814815
aF0.6111111111111112
aF0.6388888888888888
aF0.6111111111111112
aF0.6203703703703703
aF0.6851851851851852
aF0.7129629629629629
aF0.6944444444444444
aF0.7037037037037037
aF0.6759259259259259
aF0.7222222222222222
aF0.6574074074074074
aF0.7037037037037037
aF0.6388888888888888
aF0.6666666666666666
aF0.6944444444444444
aF0.7314814814814815
aF0.7870370370370371
aF0.7962962962962963
aF0.7962962962962963
aF0.7407407407407407
aF0.75
aF0.6759259259259259
aF0.6851851851851852
aF0.6944444444444444
aF0.8055555555555556
aF0.7314814814814815
aF0.7777777777777778
asI7
(lp24
F0.6296296296296297
aF0.6018518518518519
aF0.6481481481481481
aF0.6481481481481481
aF0.5925925925925926
aF0.6944444444444444
aF0.6296296296296297
aF0.7129629629629629
aF0.6296296296296297
aF0.6296296296296297
aF0.6111111111111112
aF0.6111111111111112
aF0.6666666666666666
aF0.6759259259259259
aF0.6481481481481481
aF0.6851851851851852
aF0.7314814814814815
aF0.6388888888888888
aF0.6203703703703703
aF0.7037037037037037
aF0.75
aF0.7407407407407407
aF0.6944444444444444
aF0.6944444444444444
aF0.7037037037037037
aF0.6666666666666666
aF0.7037037037037037
aF0.7592592592592593
aF0.6481481481481481
aF0.7592592592592593
aF0.7407407407407407
aF0.7777777777777778
aF0.6851851851851852
aF0.7870370370370371
aF0.6851851851851852
aF0.7407407407407407
aF0.6759259259259259
aF0.7685185185185185
aF0.7407407407407407
asa(dp25
I10
(lp26
I0
aI0
aF0.6203703703703703
aF0.6851851851851852
aF0.6759259259259259
aF0.7592592592592593
aF0.7962962962962963
aF0.7685185185185185
aF0.7777777777777778
aF0.7407407407407407
aF0.7777777777777778
aF0.7407407407407407
aF0.6759259259259259
aF0.75
aF0.7314814814814815
aF0.7222222222222222
aF0.6851851851851852
aF0.6018518518518519
aF0.6944444444444444
aF0.7222222222222222
aF0.6759259259259259
aF0.6388888888888888
aF0.7037037037037037
aF0.5925925925925926
aF0.6574074074074074
aF0.6944444444444444
aF0.7314814814814815
aF0.6296296296296297
aF0.6666666666666666
aF0.6203703703703703
aF0.7314814814814815
aF0.6666666666666666
aF0.7037037037037037
aF0.6574074074074074
aF0.6388888888888888
aF0.6666666666666666
aF0.6203703703703703
aF0.6944444444444444
aF0.5648148148148148
aF0.6574074074074074
aF0.7222222222222222
asI5
(lp27
I0
aI0
aF0.6203703703703703
aF0.6851851851851852
aF0.7037037037037037
aF0.75
aF0.8055555555555556
aF0.7870370370370371
aF0.7962962962962963
aF0.7962962962962963
aF0.7314814814814815
aF0.7407407407407407
aF0.6666666666666666
aF0.7777777777777778
aF0.7314814814814815
aF0.7314814814814815
aF0.6388888888888888
aF0.6203703703703703
aF0.6944444444444444
aF0.7407407407407407
aF0.6759259259259259
aF0.6388888888888888
aF0.6851851851851852
aF0.6111111111111112
aF0.6574074074074074
aF0.6759259259259259
aF0.7314814814814815
aF0.6203703703703703
aF0.6388888888888888
aF0.6111111111111112
aF0.7037037037037037
aF0.6944444444444444
aF0.7222222222222222
aF0.6944444444444444
aF0.6388888888888888
aF0.6851851851851852
aF0.6203703703703703
aF0.6944444444444444
aF0.5925925925925926
aF0.6666666666666666
aF0.7129629629629629
asI7
(lp28
I0
aI0
aF0.6203703703703703
aF0.6851851851851852
aF0.6944444444444444
aF0.75
aF0.7685185185185185
aF0.7592592592592593
aF0.7777777777777778
aF0.7592592592592593
aF0.7037037037037037
aF0.6666666666666666
aF0.6481481481481481
aF0.7870370370370371
aF0.7314814814814815
aF0.7407407407407407
aF0.6759259259259259
aF0.6018518518518519
aF0.7407407407407407
aF0.7129629629629629
aF0.6851851851851852
aF0.6296296296296297
aF0.6851851851851852
aF0.5925925925925926
aF0.6481481481481481
aF0.7037037037037037
aF0.7407407407407407
aF0.6296296296296297
aF0.6296296296296297
aF0.6111111111111112
aF0.7037037037037037
aF0.6388888888888888
aF0.7407407407407407
aF0.6759259259259259
aF0.6111111111111112
aF0.6481481481481481
aF0.6481481481481481
aF0.6944444444444444
aF0.6296296296296297
aF0.6944444444444444
aF0.6666666666666666
asa(dp29
I10
(lp30
I0
aI0
aF0.6069651741293532
aF0.4427860696517413
aF0.5970149253731343
aF0.4626865671641791
aF0.42786069651741293
aF0.5174129353233831
aF0.5074626865671642
aF0.47761194029850745
aF0.48756218905472637
aF0.5024875621890548
aF0.6268656716417911
aF0.6517412935323383
aF0.6318407960199005
aF0.5970149253731343
aF0.48756218905472637
aF0.6766169154228856
aF0.4577114427860697
aF0.6467661691542289
aF0.47761194029850745
aF0.6517412935323383
aF0.6318407960199005
aF0.6417910447761194
aF0.582089552238806
aF0.582089552238806
aF0.6417910447761194
aF0.681592039800995
aF0.6467661691542289
aF0.6019900497512438
aF0.572139303482587
aF0.6069651741293532
aF0.5970149253731343
aF0.6318407960199005
aF0.6119402985074627
aF0.6169154228855721
aF0.6616915422885572
aF0.6616915422885572
aF0.681592039800995
aF0.5920398009950248
aF0.6218905472636815
asI5
(lp31
I0
aI0
aF0.6069651741293532
aF0.4427860696517413
aF0.5920398009950248
aF0.46766169154228854
aF0.42786069651741293
aF0.5174129353233831
aF0.4975124378109453
aF0.4925373134328358
aF0.5472636815920398
aF0.48756218905472637
aF0.6268656716417911
aF0.3880597014925373
aF0.6218905472636815
aF0.4228855721393035
aF0.6368159203980099
aF0.6716417910447762
aF0.43781094527363185
aF0.6268656716417911
aF0.4577114427860697
aF0.572139303482587
aF0.6218905472636815
aF0.6169154228855721
aF0.5771144278606966
aF0.5870646766169154
aF0.6616915422885572
aF0.6417910447761194
aF0.6965174129353234
aF0.6069651741293532
aF0.5771144278606966
aF0.5572139303482587
aF0.582089552238806
aF0.5920398009950248
aF0.6119402985074627
aF0.6069651741293532
aF0.6268656716417911
aF0.6616915422885572
aF0.6467661691542289
aF0.572139303482587
aF0.6019900497512438
asI7
(lp32
I0
aI0
aF0.6069651741293532
aF0.4427860696517413
aF0.582089552238806
aF0.6019900497512438
aF0.42786069651741293
aF0.5422885572139303
aF0.4925373134328358
aF0.5024875621890548
aF0.5621890547263682
aF0.572139303482587
aF0.5124378109452736
aF0.4626865671641791
aF0.6268656716417911
aF0.4129353233830846
aF0.43781094527363185
aF0.6915422885572139
aF0.4427860696517413
aF0.6567164179104478
aF0.472636815920398
aF0.6517412935323383
aF0.6268656716417911
aF0.6616915422885572
aF0.6268656716417911
aF0.5771144278606966
aF0.5970149253731343
aF0.6567164179104478
aF0.7164179104477612
aF0.6368159203980099
aF0.6019900497512438
aF0.6119402985074627
aF0.4975124378109453
aF0.6318407960199005
aF0.6417910447761194
aF0.681592039800995
aF0.6666666666666666
aF0.6616915422885572
aF0.6517412935323383
aF0.5870646766169154
aF0.6368159203980099
asa(dp33
I10
(lp34
I0
aI0
aF0.5285714285714286
aF0.5857142857142857
aF0.6142857142857143
aF0.7285714285714285
aF0.7
aF0.7428571428571429
aF0.7285714285714285
aF0.6857142857142857
aF0.7428571428571429
aF0.7
aF0.6714285714285714
aF0.7428571428571429
aF0.7142857142857143
aF0.7428571428571429
aF0.6
aF0.5857142857142857
aF0.5857142857142857
aF0.7142857142857143
aF0.6285714285714286
aF0.6142857142857143
aF0.6857142857142857
aF0.5714285714285714
aF0.6571428571428571
aF0.6857142857142857
aF0.7285714285714285
aF0.6571428571428571
aF0.6571428571428571
aF0.6142857142857143
aF0.7285714285714285
aF0.6857142857142857
aF0.7142857142857143
aF0.6714285714285714
aF0.6142857142857143
aF0.6142857142857143
aF0.6142857142857143
aF0.7142857142857143
aF0.5857142857142857
aF0.6428571428571429
aF0.7285714285714285
asI5
(lp35
I0
aI0
aF0.5285714285714286
aF0.5857142857142857
aF0.6571428571428571
aF0.7142857142857143
aF0.7142857142857143
aF0.7714285714285715
aF0.7571428571428571
aF0.7714285714285715
aF0.7428571428571429
aF0.7142857142857143
aF0.6571428571428571
aF0.7285714285714285
aF0.7142857142857143
aF0.6857142857142857
aF0.6285714285714286
aF0.6142857142857143
aF0.5857142857142857
aF0.7285714285714285
aF0.6285714285714286
aF0.6
aF0.6571428571428571
aF0.6
aF0.6571428571428571
aF0.6428571428571429
aF0.7285714285714285
aF0.6571428571428571
aF0.6428571428571429
aF0.6142857142857143
aF0.7
aF0.7
aF0.7142857142857143
aF0.7285714285714285
aF0.6142857142857143
aF0.6428571428571429
aF0.6
aF0.7
aF0.6285714285714286
aF0.6571428571428571
aF0.7142857142857143
asI7
(lp36
I0
aI0
aF0.5285714285714286
aF0.5857142857142857
aF0.6428571428571429
aF0.7428571428571429
aF0.6571428571428571
aF0.7285714285714285
aF0.7285714285714285
aF0.7142857142857143
aF0.7
aF0.6285714285714286
aF0.5714285714285714
aF0.7571428571428571
aF0.7142857142857143
aF0.7
aF0.5571428571428572
aF0.5857142857142857
aF0.6571428571428571
aF0.7142857142857143
aF0.6142857142857143
aF0.6
aF0.6428571428571429
aF0.5714285714285714
aF0.6428571428571429
aF0.7142857142857143
aF0.7285714285714285
aF0.6571428571428571
aF0.6285714285714286
aF0.6142857142857143
aF0.7142857142857143
aF0.6428571428571429
aF0.6857142857142857
aF0.6857142857142857
aF0.5857142857142857
aF0.6
aF0.6428571428571429
aF0.7
aF0.6428571428571429
aF0.7
aF0.6714285714285714
asa(dp37
I10
(lp38
I0
aI0
aF0.7466666666666667
aF0.8266666666666667
aF0.7066666666666667
aF0.68
aF0.7466666666666667
aF0.6533333333333333
aF0.6666666666666666
aF0.6666666666666666
aF0.6266666666666667
aF0.64
aF0.6533333333333333
aF0.6666666666666666
aF0.68
aF0.5733333333333334
aF0.72
aF0.6666666666666666
aF0.7066666666666667
aF0.68
aF0.76
aF0.7066666666666667
aF0.7066666666666667
aF0.7466666666666667
aF0.76
aF0.7333333333333333
aF0.72
aF0.6666666666666666
aF0.7733333333333333
aF0.72
aF0.6933333333333334
aF0.6666666666666666
aF0.7333333333333333
aF0.76
aF0.6933333333333334
aF0.7333333333333333
aF0.7466666666666667
aF0.7866666666666666
aF0.7333333333333333
aF0.7066666666666667
aF0.7333333333333333
asI5
(lp39
I0
aI0
aF0.7466666666666667
aF0.8266666666666667
aF0.6933333333333334
aF0.6933333333333334
aF0.7466666666666667
aF0.6533333333333333
aF0.64
aF0.6266666666666667
aF0.6133333333333333
aF0.64
aF0.6533333333333333
aF0.6666666666666666
aF0.68
aF0.6266666666666667
aF0.68
aF0.6533333333333333
aF0.68
aF0.6933333333333334
aF0.7466666666666667
aF0.7066666666666667
aF0.6666666666666666
aF0.72
aF0.7466666666666667
aF0.72
aF0.7333333333333333
aF0.6666666666666666
aF0.7866666666666666
aF0.72
aF0.6933333333333334
aF0.6266666666666667
aF0.7066666666666667
aF0.7333333333333333
aF0.7066666666666667
aF0.68
aF0.6933333333333334
aF0.7866666666666666
aF0.7333333333333333
aF0.7066666666666667
aF0.7066666666666667
asI7
(lp40
I0
aI0
aF0.7466666666666667
aF0.8266666666666667
aF0.6666666666666666
aF0.68
aF0.7466666666666667
aF0.6533333333333333
aF0.6666666666666666
aF0.6533333333333333
aF0.64
aF0.7066666666666667
aF0.7333333333333333
aF0.6666666666666666
aF0.68
aF0.5866666666666667
aF0.72
aF0.7066666666666667
aF0.6533333333333333
aF0.6933333333333334
aF0.7733333333333333
aF0.7066666666666667
aF0.68
aF0.7466666666666667
aF0.76
aF0.7333333333333333
aF0.7333333333333333
aF0.6666666666666666
aF0.7866666666666666
aF0.7333333333333333
aF0.7466666666666667
aF0.68
aF0.76
aF0.7333333333333333
aF0.7333333333333333
aF0.7733333333333333
aF0.7466666666666667
aF0.7866666666666666
aF0.7333333333333333
aF0.6933333333333334
aF0.7466666666666667
asa(dp41
I10
(lp42
F0.17333333333333334
aF0.21333333333333337
aF0.22666666666666668
aF0.24
aF0.24
aF0.24
aF0.2533333333333333
aF0.2533333333333333
aF0.2533333333333333
aF0.2533333333333333
aF0.2666666666666667
aF0.2666666666666667
aF0.2666666666666667
aF0.2666666666666667
aF0.2666666666666667
aF0.28
aF0.28
aF0.28
aF0.29333333333333333
aF0.29333333333333333
aF0.29333333333333333
aF0.29333333333333333
aF0.29333333333333333
aF0.30666666666666664
aF0.30666666666666664
aF0.31999999999999995
aF0.31999999999999995
aF0.31999999999999995
aF0.33333333333333337
aF0.33333333333333337
aF0.33333333333333337
aF0.33333333333333337
aF0.33333333333333337
aF0.33333333333333337
aF0.3466666666666667
aF0.3466666666666667
aF0.36
aF0.3733333333333333
aF0.42666666666666664
asI5
(lp43
F0.17333333333333334
aF0.21333333333333337
aF0.21333333333333337
aF0.2533333333333333
aF0.2533333333333333
aF0.2533333333333333
aF0.2533333333333333
aF0.2666666666666667
aF0.2666666666666667
aF0.2666666666666667
aF0.28
aF0.28
aF0.28
aF0.29333333333333333
aF0.29333333333333333
aF0.29333333333333333
aF0.29333333333333333
aF0.29333333333333333
aF0.30666666666666664
aF0.30666666666666664
aF0.30666666666666664
aF0.30666666666666664
aF0.30666666666666664
aF0.31999999999999995
aF0.31999999999999995
aF0.31999999999999995
aF0.31999999999999995
aF0.33333333333333337
aF0.33333333333333337
aF0.33333333333333337
aF0.3466666666666667
aF0.3466666666666667
aF0.3466666666666667
aF0.36
aF0.36
aF0.3733333333333333
aF0.3733333333333333
aF0.3733333333333333
aF0.3866666666666667
asI7
(lp44
F0.17333333333333334
aF0.21333333333333337
aF0.21333333333333337
aF0.22666666666666668
aF0.22666666666666668
aF0.24
aF0.24
aF0.2533333333333333
aF0.2533333333333333
aF0.2533333333333333
aF0.2533333333333333
aF0.2533333333333333
aF0.2533333333333333
aF0.2666666666666667
aF0.2666666666666667
aF0.2666666666666667
aF0.2666666666666667
aF0.2666666666666667
aF0.2666666666666667
aF0.2666666666666667
aF0.28
aF0.29333333333333333
aF0.29333333333333333
aF0.29333333333333333
aF0.30666666666666664
aF0.30666666666666664
aF0.31999999999999995
aF0.31999999999999995
aF0.31999999999999995
aF0.31999999999999995
aF0.33333333333333337
aF0.33333333333333337
aF0.33333333333333337
aF0.33333333333333337
aF0.3466666666666667
aF0.3466666666666667
aF0.3466666666666667
aF0.36
aF0.41333333333333333
asa(dp45
I10
(lp46
F0.5857142857142857
aF0.7142857142857143
aF0.6571428571428571
aF0.6285714285714286
aF0.6571428571428571
aF0.6714285714285714
aF0.5285714285714286
aF0.5714285714285714
aF0.6142857142857143
aF0.7
aF0.5857142857142857
aF0.6142857142857143
aF0.6857142857142857
aF0.7142857142857143
aF0.7285714285714285
aF0.6
aF0.6142857142857143
aF0.7285714285714285
aF0.5857142857142857
aF0.6142857142857143
aF0.6142857142857143
aF0.6428571428571429
aF0.6857142857142857
aF0.6142857142857143
aF0.7285714285714285
aF0.7142857142857143
aF0.7142857142857143
aF0.7285714285714285
aF0.5857142857142857
aF0.6571428571428571
aF0.6857142857142857
aF0.6857142857142857
aF0.7285714285714285
aF0.7428571428571429
aF0.6714285714285714
aF0.7428571428571429
aF0.7
aF0.7428571428571429
aF0.7428571428571429
asI5
(lp47
F0.5857142857142857
aF0.6428571428571429
aF0.7
aF0.5285714285714286
aF0.6285714285714286
aF0.6571428571428571
aF0.7142857142857143
aF0.6285714285714286
aF0.7285714285714285
aF0.7285714285714285
aF0.6
aF0.6142857142857143
aF0.6428571428571429
aF0.6
aF0.6142857142857143
aF0.6571428571428571
aF0.7142857142857143
aF0.7142857142857143
aF0.6
aF0.6571428571428571
aF0.7
aF0.7142857142857143
aF0.7285714285714285
aF0.5857142857142857
aF0.6285714285714286
aF0.6428571428571429
aF0.7142857142857143
aF0.6571428571428571
aF0.6571428571428571
aF0.7285714285714285
aF0.6142857142857143
aF0.6571428571428571
aF0.7714285714285715
aF0.7142857142857143
aF0.7571428571428571
aF0.6857142857142857
aF0.7
aF0.7714285714285715
aF0.7428571428571429
asI7
(lp48
F0.5857142857142857
aF0.6285714285714286
aF0.7
aF0.6
aF0.6142857142857143
aF0.6428571428571429
aF0.6857142857142857
aF0.5285714285714286
aF0.5714285714285714
aF0.6428571428571429
aF0.6571428571428571
aF0.6714285714285714
aF0.7142857142857143
aF0.5714285714285714
aF0.5857142857142857
aF0.6142857142857143
aF0.6428571428571429
aF0.6857142857142857
aF0.7142857142857143
aF0.7285714285714285
aF0.5571428571428572
aF0.5857142857142857
aF0.6
aF0.6285714285714286
aF0.7
aF0.7142857142857143
aF0.6428571428571429
aF0.6428571428571429
aF0.7142857142857143
aF0.7428571428571429
aF0.6428571428571429
aF0.6571428571428571
aF0.7285714285714285
aF0.7571428571428571
aF0.6571428571428571
aF0.7142857142857143
aF0.7285714285714285
aF0.7
aF0.7
asaI1
a(lp49
I5
aI7
aI10
aa.