(lp0
S'CV'
p1
acnumpy.core.multiarray
_reconstruct
p2
(cnumpy
ndarray
p3
(I0
tp4
S'b'
p5
tp6
Rp7
(I1
(I39
tp8
cnumpy
dtype
p9
(S'i8'
p10
I0
I1
tp11
Rp12
(I3
S'<'
p13
NNNI-1
I-1
I0
tp14
bI00
S'\x02\x00\x00\x00\x00\x00\x00\x00\x03\x00\x00\x00\x00\x00\x00\x00\x04\x00\x00\x00\x00\x00\x00\x00\x05\x00\x00\x00\x00\x00\x00\x00\x06\x00\x00\x00\x00\x00\x00\x00\x07\x00\x00\x00\x00\x00\x00\x00\x08\x00\x00\x00\x00\x00\x00\x00\t\x00\x00\x00\x00\x00\x00\x00\n\x00\x00\x00\x00\x00\x00\x00\x0b\x00\x00\x00\x00\x00\x00\x00\x0c\x00\x00\x00\x00\x00\x00\x00\r\x00\x00\x00\x00\x00\x00\x00\x0e\x00\x00\x00\x00\x00\x00\x00\x0f\x00\x00\x00\x00\x00\x00\x00\x10\x00\x00\x00\x00\x00\x00\x00\x11\x00\x00\x00\x00\x00\x00\x00\x12\x00\x00\x00\x00\x00\x00\x00\x13\x00\x00\x00\x00\x00\x00\x00\x14\x00\x00\x00\x00\x00\x00\x00\x15\x00\x00\x00\x00\x00\x00\x00\x16\x00\x00\x00\x00\x00\x00\x00\x17\x00\x00\x00\x00\x00\x00\x00\x18\x00\x00\x00\x00\x00\x00\x00\x19\x00\x00\x00\x00\x00\x00\x00\x1a\x00\x00\x00\x00\x00\x00\x00\x1b\x00\x00\x00\x00\x00\x00\x00\x1c\x00\x00\x00\x00\x00\x00\x00\x1d\x00\x00\x00\x00\x00\x00\x00\x1e\x00\x00\x00\x00\x00\x00\x00\x1f\x00\x00\x00\x00\x00\x00\x00 \x00\x00\x00\x00\x00\x00\x00!\x00\x00\x00\x00\x00\x00\x00"\x00\x00\x00\x00\x00\x00\x00#\x00\x00\x00\x00\x00\x00\x00$\x00\x00\x00\x00\x00\x00\x00%\x00\x00\x00\x00\x00\x00\x00&\x00\x00\x00\x00\x00\x00\x00\'\x00\x00\x00\x00\x00\x00\x00(\x00\x00\x00\x00\x00\x00\x00'
p15
tp16
baI4
a(dp17
I10
(lp18
F0.0572139303482585
aF0.07711442786069644
aF0.07960199004975133
aF0.0820895522388061
aF0.08333333333333337
aF0.08706467661691553
aF0.08830845771144291
aF0.0895522388059703
aF0.0895522388059703
aF0.09079601990049735
aF0.09203980099502473
aF0.09203980099502485
aF0.09328358208955223
aF0.09577114427860689
aF0.09950248756218916
aF0.10074626865671632
aF0.10074626865671632
aF0.10572139303482597
aF0.10945273631840802
aF0.11069651741293518
aF0.11069651741293518
aF0.11318407960198995
aF0.11442786069651734
aF0.11442786069651756
aF0.116915422885572
aF0.11940298507462688
aF0.12064676616915426
aF0.12189054726368165
aF0.12686567164179108
aF0.12686567164179108
aF0.12810945273631846
aF0.12935323383084574
aF0.1318407960199005
aF0.13681592039800983
aF0.13681592039800983
aF0.1393034825870646
aF0.17412935323383094
aF0.18905472636815934
aF0.4029850746268656
asI5
(lp19
F0.06840796019900497
aF0.07960199004975133
aF0.08457711442786076
aF0.08706467661691553
aF0.08955223880597007
aF0.09079601990049746
aF0.09203980099502485
aF0.09328358208955212
aF0.09452736318407962
aF0.09452736318407962
aF0.09701492537313416
aF0.10199004975124382
aF0.10199004975124382
aF0.10572139303482597
aF0.10696517412935325
aF0.10820895522388063
aF0.11069651741293518
aF0.11318407960199017
aF0.11442786069651734
aF0.11442786069651756
aF0.11691542288557233
aF0.11815920398009938
aF0.12189054726368165
aF0.12313432835820892
aF0.12437810945273631
aF0.12686567164179108
aF0.12935323383084574
aF0.12935323383084574
aF0.1318407960199005
aF0.13432835820895528
aF0.13557213930348277
aF0.1393034825870646
aF0.14179104477611937
aF0.1467661691542288
aF0.14800995024875618
aF0.1542288557213931
aF0.16542288557213947
aF0.18283582089552253
aF0.4029850746268656
asI7
(lp20
F0.06343283582089543
aF0.07960199004975133
aF0.08208955223880599
aF0.08333333333333348
aF0.08582089552238825
aF0.0870646766169153
aF0.08955223880597041
aF0.09079601990049746
aF0.09079601990049768
aF0.0945273631840795
aF0.09452736318407962
aF0.09452736318407962
aF0.09577114427860689
aF0.09701492537313439
aF0.09950248756218893
aF0.09950248756218893
aF0.1019900497512437
aF0.1032338308457712
aF0.10447761194029859
aF0.10572139303482597
aF0.10820895522388074
aF0.10945273631840802
aF0.11318407960198995
aF0.11318407960198995
aF0.11318407960198995
aF0.11318407960199017
aF0.11318407960199017
aF0.12064676616915415
aF0.12189054726368154
aF0.12437810945273631
aF0.12686567164179108
aF0.12686567164179108
aF0.12810945273631846
aF0.13059701492537323
aF0.14427860696517414
aF0.14925373134328357
aF0.15298507462686572
aF0.18034825870646765
aF0.4029850746268656
asa(dp21
I10
(lp22
F0.08796296296296298
aF0.12499999999999996
aF0.16666666666666666
aF0.17824074074074073
aF0.20833333333333334
aF0.20833333333333334
aF0.17129629629629628
aF0.15277777777777776
aF0.15277777777777776
aF0.16666666666666666
aF0.17824074074074073
aF0.21064814814814817
aF0.20833333333333337
aF0.2337962962962963
aF0.21990740740740736
aF0.18287037037037038
aF0.24305555555555558
aF0.1597222222222222
aF0.20601851851851852
aF0.19675925925925927
aF0.20601851851851852
aF0.16203703703703703
aF0.17361111111111113
aF0.16898148148148148
aF0.20138888888888887
aF0.21064814814814814
aF0.19675925925925927
aF0.2430555555555556
aF0.19675925925925927
aF0.2569444444444445
aF0.17361111111111113
aF0.2476851851851852
aF0.2175925925925926
aF0.1944444444444445
aF0.21990740740740736
aF0.21296296296296294
aF0.24074074074074073
aF0.3333333333333333
aF0.6550925925925927
asI5
(lp23
F0.14120370370370372
aF0.14814814814814817
aF0.18055555555555558
aF0.19675925925925922
aF0.15740740740740738
aF0.17129629629629628
aF0.1875
aF0.16203703703703703
aF0.16435185185185183
aF0.23148148148148148
aF0.224537037037037
aF0.16203703703703703
aF0.2615740740740741
aF0.21064814814814817
aF0.1875
aF0.22453703703703706
aF0.21296296296296294
aF0.24305555555555558
aF0.23842592592592593
aF0.1875
aF0.2523148148148148
aF0.23842592592592596
aF0.18055555555555555
aF0.18055555555555555
aF0.224537037037037
aF0.2592592592592593
aF0.21296296296296302
aF0.22916666666666666
aF0.22222222222222224
aF0.19675925925925922
aF0.22222222222222224
aF0.21064814814814814
aF0.28009259259259256
aF0.2638888888888889
aF0.23379629629629628
aF0.24305555555555555
aF0.34027777777777773
aF0.26157407407407407
aF0.6550925925925927
asI7
(lp24
F0.10648148148148147
aF0.21064814814814814
aF0.1550925925925926
aF0.17824074074074073
aF0.15277777777777776
aF0.2407407407407407
aF0.16203703703703703
aF0.17592592592592593
aF0.1712962962962963
aF0.13657407407407404
aF0.21527777777777776
aF0.21990740740740744
aF0.23611111111111113
aF0.1875
aF0.19907407407407407
aF0.1990740740740741
aF0.23611111111111108
aF0.1875
aF0.16666666666666666
aF0.16435185185185183
aF0.20370370370370372
aF0.19212962962962965
aF0.19907407407407407
aF0.23379629629629628
aF0.25231481481481477
aF0.16666666666666663
aF0.18750000000000003
aF0.19907407407407407
aF0.16898148148148148
aF0.20601851851851852
aF0.2037037037037037
aF0.25925925925925924
aF0.20833333333333334
aF0.22222222222222224
aF0.2222222222222222
aF0.23611111111111108
aF0.20833333333333334
aF0.3541666666666667
aF0.6550925925925927
asa(dp25
I10
(lp26
I0
aI0
aF0.6550925925925927
aF0.16898148148148148
aF0.17361111111111113
aF0.24074074074074073
aF0.2476851851851852
aF0.3333333333333333
aF0.16203703703703703
aF0.08796296296296298
aF0.1944444444444445
aF0.1597222222222222
aF0.12499999999999996
aF0.21990740740740736
aF0.15277777777777776
aF0.18287037037037038
aF0.16666666666666666
aF0.2569444444444445
aF0.19675925925925927
aF0.17129629629629628
aF0.15277777777777776
aF0.24305555555555558
aF0.20833333333333337
aF0.21296296296296294
aF0.20833333333333334
aF0.21064814814814817
aF0.17361111111111113
aF0.16666666666666666
aF0.17824074074074073
aF0.21064814814814814
aF0.2430555555555556
aF0.19675925925925927
aF0.2175925925925926
aF0.19675925925925927
aF0.17824074074074073
aF0.21990740740740736
aF0.2337962962962963
aF0.20833333333333334
aF0.20138888888888887
aF0.20601851851851852
aF0.20601851851851852
asI5
(lp27
I0
aI0
aF0.6550925925925927
aF0.16203703703703703
aF0.1875
aF0.26157407407407407
aF0.28009259259259256
aF0.34027777777777773
aF0.18055555555555555
aF0.14120370370370372
aF0.21064814814814814
aF0.18055555555555555
aF0.16203703703703703
aF0.22222222222222224
aF0.15740740740740738
aF0.19675925925925922
aF0.17129629629629628
aF0.2592592592592593
aF0.224537037037037
aF0.14814814814814817
aF0.16435185185185183
aF0.23842592592592596
aF0.22453703703703706
aF0.24305555555555555
aF0.23148148148148148
aF0.224537037037037
aF0.19675925925925922
aF0.1875
aF0.21296296296296294
aF0.22916666666666666
aF0.2638888888888889
aF0.1875
aF0.22222222222222224
aF0.23379629629629628
aF0.18055555555555558
aF0.2523148148148148
aF0.2615740740740741
aF0.21064814814814817
aF0.21296296296296302
aF0.23842592592592593
aF0.24305555555555558
asI7
(lp28
I0
aI0
aF0.6550925925925927
aF0.16435185185185183
aF0.18750000000000003
aF0.23611111111111108
aF0.25925925925925924
aF0.3541666666666667
aF0.16666666666666663
aF0.10648148148148147
aF0.20833333333333334
aF0.16666666666666666
aF0.13657407407407404
aF0.22222222222222224
aF0.15277777777777776
aF0.19907407407407407
aF0.1712962962962963
aF0.25231481481481477
aF0.19907407407407407
aF0.1550925925925926
aF0.16203703703703703
aF0.23611111111111108
aF0.21990740740740744
aF0.2222222222222222
aF0.21064814814814814
aF0.21527777777777776
aF0.16898148148148148
aF0.17592592592592593
aF0.1875
aF0.2037037037037037
aF0.23379629629629628
aF0.1875
aF0.20601851851851852
aF0.19907407407407407
aF0.17824074074074073
aF0.23611111111111113
aF0.2407407407407407
aF0.1990740740740741
aF0.19212962962962965
aF0.20833333333333334
aF0.20370370370370372
asa(dp29
I10
(lp30
I0
aI0
aF0.5970149253731344
aF0.8855721393034824
aF0.8855721393034827
aF0.8258706467661691
aF0.8706467661691543
aF0.8109452736318407
aF0.88681592039801
aF0.9427860696517415
aF0.8631840796019902
aF0.894278606965174
aF0.9228855721393036
aF0.8631840796019902
aF0.9104477611940297
aF0.8992537313432837
aF0.9203980099502487
aF0.8731343283582089
aF0.8793532338308457
aF0.9116915422885571
aF0.9104477611940297
aF0.8992537313432837
aF0.9067164179104478
aF0.8606965174129354
aF0.9166666666666666
aF0.9079601990049752
aF0.8718905472636815
aF0.9092039800995027
aF0.9079601990049753
aF0.8805970149253731
aF0.8781094527363184
aF0.8893034825870648
aF0.8681592039800995
aF0.8731343283582089
aF0.9179104477611939
aF0.9004975124378108
aF0.9042288557213931
aF0.9129353233830845
aF0.883084577114428
aF0.8893034825870648
aF0.890547263681592
asI5
(lp31
I0
aI0
aF0.5970149253731344
aF0.8980099502487562
aF0.8855721393034824
aF0.8171641791044775
aF0.8582089552238806
aF0.8345771144278605
aF0.8781094527363184
aF0.931592039800995
aF0.8606965174129354
aF0.8768656716417911
aF0.9067164179104479
aF0.8644278606965172
aF0.9104477611940299
aF0.9129353233830845
aF0.9092039800995025
aF0.8731343283582089
aF0.8756218905472637
aF0.9203980099502487
aF0.9054726368159204
aF0.8818407960199006
aF0.8917910447761194
aF0.8457711442786069
aF0.9054726368159204
aF0.9029850746268658
aF0.8656716417910447
aF0.9079601990049752
aF0.8893034825870648
aF0.8706467661691543
aF0.8532338308457712
aF0.8930348258706468
aF0.8681592039800995
aF0.8519900497512438
aF0.9154228855721392
aF0.8830845771144277
aF0.8980099502487562
aF0.894278606965174
aF0.8706467661691543
aF0.8855721393034827
aF0.8868159203980098
asI7
(lp32
I0
aI0
aF0.5970149253731344
aF0.894278606965174
aF0.8868159203980098
aF0.8507462686567164
aF0.8731343283582089
aF0.8196517412935324
aF0.8868159203980098
aF0.9365671641791046
aF0.8470149253731343
aF0.8955223880597014
aF0.9054726368159205
aF0.8694029850746268
aF0.9141791044776117
aF0.9004975124378111
aF0.9092039800995023
aF0.88681592039801
aF0.88681592039801
aF0.917910447761194
aF0.9104477611940296
aF0.8980099502487563
aF0.9054726368159204
aF0.8557213930348259
aF0.9203980099502487
aF0.9054726368159204
aF0.8781094527363185
aF0.9092039800995025
aF0.9029850746268656
aF0.8731343283582089
aF0.88681592039801
aF0.8967661691542288
aF0.8756218905472637
aF0.8793532338308458
aF0.9166666666666665
aF0.9042288557213931
aF0.9129353233830847
aF0.9004975124378111
aF0.890547263681592
aF0.8718905472636815
aF0.8917910447761193
asa(dp33
I10
(lp34
I0
aI0
aF0.5948148148148148
aF0.16234567901234567
aF0.17296296296296296
aF0.22999999999999998
aF0.2392592592592593
aF0.33049382716049386
aF0.18660493827160496
aF0.0858641975308642
aF0.16549382716049382
aF0.20222222222222222
aF0.13469135802469137
aF0.21864197530864202
aF0.1389506172839506
aF0.21172839506172844
aF0.1932098765432099
aF0.2852469135802469
aF0.21950617283950616
aF0.19006172839506175
aF0.16808641975308644
aF0.28030864197530864
aF0.2435185185185185
aF0.22999999999999998
aF0.23530864197530862
aF0.2745061728395062
aF0.21765432098765436
aF0.1845679012345679
aF0.21845679012345684
aF0.2482098765432099
aF0.26314814814814813
aF0.21790123456790123
aF0.2512962962962963
aF0.20061728395061731
aF0.22611111111111112
aF0.2764814814814815
aF0.27283950617283953
aF0.23641975308641974
aF0.23561728395061732
aF0.2240740740740741
aF0.2530864197530864
asI5
(lp35
I0
aI0
aF0.5948148148148148
aF0.18438271604938272
aF0.2074074074074074
aF0.2782716049382716
aF0.2968518518518518
aF0.3862962962962963
aF0.22185185185185186
aF0.18438271604938272
aF0.21734567901234567
aF0.24543209876543212
aF0.17500000000000002
aF0.2340740740740741
aF0.1456172839506173
aF0.22586419753086417
aF0.20296296296296298
aF0.3062962962962963
aF0.2546913580246914
aF0.17135802469135805
aF0.17709876543209876
aF0.29037037037037033
aF0.2715432098765432
aF0.24999999999999997
aF0.2664197530864197
aF0.2888888888888889
aF0.23462962962962963
aF0.21697530864197526
aF0.2664814814814815
aF0.2798148148148148
aF0.26851851851851855
aF0.21092592592592593
aF0.2916049382716049
aF0.2746296296296296
aF0.2212345679012346
aF0.31549382716049384
aF0.29623456790123454
aF0.24697530864197528
aF0.2764814814814815
aF0.2743827160493827
aF0.2960493827160494
asI7
(lp36
I0
aI0
aF0.5948148148148148
aF0.18771604938271605
aF0.19969135802469137
aF0.2551851851851852
aF0.25808641975308644
aF0.38166666666666665
aF0.19716049382716047
aF0.13499999999999998
aF0.18166666666666664
aF0.22895061728395064
aF0.14907407407407405
aF0.234320987654321
aF0.15049382716049384
aF0.2271604938271605
aF0.20197530864197533
aF0.29962962962962963
aF0.22283950617283946
aF0.17543209876543212
aF0.17141975308641977
aF0.28339506172839496
aF0.2684567901234568
aF0.23796296296296293
aF0.24456790123456787
aF0.2654938271604938
aF0.21506172839506174
aF0.20358024691358023
aF0.2256172839506173
aF0.23512345679012348
aF0.2497530864197531
aF0.21197530864197534
aF0.25234567901234567
aF0.22604938271604938
aF0.2217283950617284
aF0.2990740740740741
aF0.28185185185185185
aF0.22438271604938273
aF0.23456790123456794
aF0.23382716049382715
aF0.25234567901234567
asa(dp37
I10
(lp38
I0
aI0
aF0.721571906354515
aF0.9013377926421405
aF0.9069119286510591
aF0.8592530657748046
aF0.899665551839465
aF0.8387681159420289
aF0.8748606465997771
aF0.9257246376811595
aF0.8894927536231885
aF0.8984113712374581
aF0.9338071348940916
aF0.895345596432553
aF0.9173634336677815
aF0.9161092530657747
aF0.9028706800445931
aF0.8706800445930881
aF0.8843366778149386
aF0.907329988851728
aF0.9173634336677816
aF0.8784838350055741
aF0.8755574136008919
aF0.8607859531772576
aF0.9216833890746936
aF0.8614827201783725
aF0.8719342251950947
aF0.8751393534002231
aF0.9133221850613156
aF0.8900501672240804
aF0.8960423634336679
aF0.8620401337792641
aF0.8736064659977704
aF0.8490802675585284
aF0.9041248606465998
aF0.8708193979933111
aF0.911789297658863
aF0.9201505016722408
aF0.8913043478260869
aF0.8341694537346712
aF0.8688684503901896
asI5
(lp39
I0
aI0
aF0.721571906354515
aF0.9041248606465998
aF0.8868450390189521
aF0.8107580824972128
aF0.8687290969899667
aF0.7941750278706802
aF0.8716555183946487
aF0.8734671125975475
aF0.8862876254180603
aF0.8582775919732443
aF0.9109531772575252
aF0.8880992196209587
aF0.9237736900780379
aF0.9257246376811595
aF0.8932552954292086
aF0.8638517279821628
aF0.8683110367892977
aF0.8860089186176143
aF0.9009197324414716
aF0.8524247491638794
aF0.8595317725752509
aF0.8347268673355631
aF0.8979933110367894
aF0.85103121516165
aF0.8659420289855073
aF0.8719342251950949
aF0.8864269788182831
aF0.8595317725752509
aF0.8795986622073579
aF0.8639910813823858
aF0.8772296544035676
aF0.8226031215161648
aF0.8904682274247492
aF0.8543756967670012
aF0.8949275362318841
aF0.8851727982162766
aF0.859253065774805
aF0.8382107023411373
aF0.8588350055741362
asI7
(lp40
I0
aI0
aF0.721571906354515
aF0.8977146042363434
aF0.8904682274247491
aF0.8239966555183945
aF0.9088628762541805
aF0.7945930880713491
aF0.8720735785953178
aF0.8899108138238575
aF0.8894927536231885
aF0.8743032329988852
aF0.9265607580824974
aF0.8889353400222966
aF0.9201505016722408
aF0.9225195094760311
aF0.8932552954292086
aF0.8666387959866221
aF0.8851727982162765
aF0.891304347826087
aF0.9105351170568562
aF0.8688684503901896
aF0.8795986622073579
aF0.8475473801560759
aF0.9096989966555186
aF0.8527034559643255
aF0.8751393534002231
aF0.871516164994426
aF0.8900501672240803
aF0.880016722408027
aF0.9032887402452622
aF0.8539576365663324
aF0.8791806020066891
aF0.8482441471571907
aF0.8972965440356745
aF0.8736064659977704
aF0.9045429208472688
aF0.9056577480490525
aF0.8977146042363433
aF0.8245540691192866
aF0.8528428093645486
asa(dp41
I10
(lp42
F0.06619286510590838
aF0.07427536231884047
aF0.0783166109253064
aF0.07984949832775923
aF0.08263656633221839
aF0.0826365663322185
aF0.08389074693422527
aF0.08667781493868443
aF0.08821070234113704
aF0.092670011148272
aF0.09308807134894093
aF0.0958751393534002
aF0.09712931995540686
aF0.09866220735785947
aF0.10033444816053505
aF0.10158862876254193
aF0.10395763656633206
aF0.10465440356744704
aF0.10869565217391308
aF0.10994983277591963
aF0.11050724637681153
aF0.11566332218506137
aF0.12151616499442586
aF0.1244425863991081
aF0.12486064659977691
aF0.12513935340022286
aF0.12639353400222963
aF0.12806577480490533
aF0.1291806020066889
aF0.12931995540691188
aF0.13113154960981044
aF0.13795986622073586
aF0.13851727982162754
aF0.1392140468227424
aF0.14074693422519535
aF0.1509197324414716
aF0.16123188405797106
aF0.16583054626532878
aF0.27842809364548504
asI5
(lp43
F0.07427536231884047
aF0.07622630992196211
aF0.08904682274247477
aF0.0958751393534002
aF0.09908026755852839
aF0.10200668896321063
aF0.10507246376811585
aF0.10674470457079144
aF0.10953177257525082
aF0.11190078037904128
aF0.11315496098104794
aF0.11357302118171686
aF0.11371237458193972
aF0.11399108138238567
aF0.11482720178372341
aF0.12040133779264206
aF0.1227703455964324
aF0.1265328874024525
aF0.1280657748049051
aF0.12834448160535128
aF0.1312709030100333
aF0.13168896321070234
aF0.13405797101449268
aF0.13600891861761422
aF0.1361482720178372
aF0.14046822742474907
aF0.14046822742474907
aF0.14074693422519502
aF0.14116499442586383
aF0.14172240802675573
aF0.1456243032329988
aF0.14757525083612055
aF0.14896878483834997
aF0.16178929765886274
aF0.16527313266443688
aF0.17739687848383523
aF0.18924191750278718
aF0.20582497212931983
aF0.27842809364548504
asI7
(lp44
F0.07343924191750262
aF0.07748049052396888
aF0.07984949832775923
aF0.08946488294314381
aF0.09030100334448143
aF0.0911371237458195
aF0.09434225195094748
aF0.09545707915273116
aF0.09671125975473782
aF0.10228539576365658
aF0.1022853957636567
aF0.10270345596432551
aF0.10674470457079144
aF0.10869565217391297
aF0.10953177257525093
aF0.10994983277591974
aF0.1100891861761425
aF0.11050724637681153
aF0.11106465997770343
aF0.11482720178372352
aF0.11998327759197303
aF0.12040133779264206
aF0.12081939799331087
aF0.12486064659977691
aF0.12569676700111476
aF0.12639353400222963
aF0.12792642140468224
aF0.12848383500557403
aF0.13113154960981044
aF0.13336120401337792
aF0.1460423634336676
aF0.1471571906354514
aF0.1472965440356745
aF0.15175585284280935
aF0.1524526198439241
aF0.17544593088071336
aF0.17600334448160548
aF0.2054069119286509
aF0.27842809364548504
asa(dp45
I10
(lp46
F0.13469135802469137
aF0.0858641975308642
aF0.23530864197530862
aF0.23641975308641974
aF0.16808641975308644
aF0.1389506172839506
aF0.21172839506172844
aF0.21845679012345684
aF0.27283950617283953
aF0.19006172839506175
aF0.17296296296296296
aF0.22611111111111112
aF0.1932098765432099
aF0.16234567901234567
aF0.2392592592592593
aF0.20222222222222222
aF0.26314814814814813
aF0.21864197530864202
aF0.23561728395061732
aF0.2482098765432099
aF0.16549382716049382
aF0.21950617283950616
aF0.28030864197530864
aF0.2435185185185185
aF0.1845679012345679
aF0.18660493827160496
aF0.2512962962962963
aF0.21765432098765436
aF0.2764814814814815
aF0.2852469135802469
aF0.2530864197530864
aF0.21790123456790123
aF0.2745061728395062
aF0.22999999999999998
aF0.22999999999999998
aF0.20061728395061731
aF0.33049382716049386
aF0.2240740740740741
aF0.5948148148148148
asI5
(lp47
F0.22586419753086417
aF0.1456172839506173
aF0.17500000000000002
aF0.18438271604938272
aF0.17709876543209876
aF0.2664197530864197
aF0.29623456790123454
aF0.20296296296296298
aF0.2212345679012346
aF0.2340740740740741
aF0.2074074074074074
aF0.2664814814814815
aF0.21734567901234567
aF0.17135802469135805
aF0.24697530864197528
aF0.26851851851851855
aF0.2916049382716049
aF0.18438271604938272
aF0.21697530864197526
aF0.22185185185185186
aF0.2968518518518518
aF0.2546913580246914
aF0.23462962962962963
aF0.21092592592592593
aF0.3062962962962963
aF0.2715432098765432
aF0.2798148148148148
aF0.2764814814814815
aF0.2960493827160494
aF0.24543209876543212
aF0.31549382716049384
aF0.29037037037037033
aF0.2888888888888889
aF0.2743827160493827
aF0.24999999999999997
aF0.2746296296296296
aF0.2782716049382716
aF0.3862962962962963
aF0.5948148148148148
asI7
(lp48
F0.14907407407407405
aF0.2271604938271605
aF0.15049382716049384
aF0.17141975308641977
aF0.24456790123456787
aF0.25808641975308644
aF0.22438271604938273
aF0.28185185185185185
aF0.2497530864197531
aF0.18771604938271605
aF0.23456790123456794
aF0.2217283950617284
aF0.20197530864197533
aF0.17543209876543212
aF0.19969135802469137
aF0.2256172839506173
aF0.13499999999999998
aF0.18166666666666664
aF0.234320987654321
aF0.22283950617283946
aF0.23512345679012348
aF0.2684567901234568
aF0.25234567901234567
aF0.21506172839506174
aF0.22895061728395064
aF0.2990740740740741
aF0.19716049382716047
aF0.20358024691358023
aF0.28339506172839496
aF0.29962962962962963
aF0.21197530864197534
aF0.25234567901234567
aF0.2654938271604938
aF0.22604938271604938
aF0.23796296296296293
aF0.23382716049382715
aF0.2551851851851852
aF0.38166666666666665
aF0.5948148148148148
asaI3
a(lp49
I5
aI7
aI10
aa.