(lp0
S'noCV'
p1
acnumpy.core.multiarray
_reconstruct
p2
(cnumpy
ndarray
p3
(I0
tp4
S'b'
p5
tp6
Rp7
(I1
(I39
tp8
cnumpy
dtype
p9
(S'i8'
p10
I0
I1
tp11
Rp12
(I3
S'<'
p13
NNNI-1
I-1
I0
tp14
bI00
S'\x02\x00\x00\x00\x00\x00\x00\x00\x03\x00\x00\x00\x00\x00\x00\x00\x04\x00\x00\x00\x00\x00\x00\x00\x05\x00\x00\x00\x00\x00\x00\x00\x06\x00\x00\x00\x00\x00\x00\x00\x07\x00\x00\x00\x00\x00\x00\x00\x08\x00\x00\x00\x00\x00\x00\x00\t\x00\x00\x00\x00\x00\x00\x00\n\x00\x00\x00\x00\x00\x00\x00\x0b\x00\x00\x00\x00\x00\x00\x00\x0c\x00\x00\x00\x00\x00\x00\x00\r\x00\x00\x00\x00\x00\x00\x00\x0e\x00\x00\x00\x00\x00\x00\x00\x0f\x00\x00\x00\x00\x00\x00\x00\x10\x00\x00\x00\x00\x00\x00\x00\x11\x00\x00\x00\x00\x00\x00\x00\x12\x00\x00\x00\x00\x00\x00\x00\x13\x00\x00\x00\x00\x00\x00\x00\x14\x00\x00\x00\x00\x00\x00\x00\x15\x00\x00\x00\x00\x00\x00\x00\x16\x00\x00\x00\x00\x00\x00\x00\x17\x00\x00\x00\x00\x00\x00\x00\x18\x00\x00\x00\x00\x00\x00\x00\x19\x00\x00\x00\x00\x00\x00\x00\x1a\x00\x00\x00\x00\x00\x00\x00\x1b\x00\x00\x00\x00\x00\x00\x00\x1c\x00\x00\x00\x00\x00\x00\x00\x1d\x00\x00\x00\x00\x00\x00\x00\x1e\x00\x00\x00\x00\x00\x00\x00\x1f\x00\x00\x00\x00\x00\x00\x00 \x00\x00\x00\x00\x00\x00\x00!\x00\x00\x00\x00\x00\x00\x00"\x00\x00\x00\x00\x00\x00\x00#\x00\x00\x00\x00\x00\x00\x00$\x00\x00\x00\x00\x00\x00\x00%\x00\x00\x00\x00\x00\x00\x00&\x00\x00\x00\x00\x00\x00\x00\'\x00\x00\x00\x00\x00\x00\x00(\x00\x00\x00\x00\x00\x00\x00'
p15
tp16
baI1
a(dp17
I10
(lp18
F0.04975124378109452
aF0.08955223880597019
aF0.08955223880597019
aF0.09452736318407962
aF0.10447761194029848
aF0.10447761194029848
aF0.1094527363184079
aF0.11940298507462688
aF0.11940298507462688
aF0.1393034825870647
aF0.1393034825870647
aF0.14925373134328357
aF0.16417910447761197
aF0.17910447761194026
aF0.17910447761194026
aF0.1840796019900498
aF0.18905472636815923
aF0.19402985074626866
aF0.20895522388059706
aF0.2139303482587065
aF0.22388059701492535
aF0.22885572139303478
aF0.24378109452736318
aF0.24875621890547261
aF0.25373134328358204
aF0.2587064676616916
aF0.2786069651741293
aF0.2935323383084577
aF0.3084577114427861
aF0.3084577114427861
aF0.31840796019900497
aF0.33333333333333337
aF0.3532338308457711
aF0.35820895522388063
aF0.3830845771144279
aF0.3880597014925373
aF0.4577114427860697
aF0.5074626865671642
aF0.6417910447761195
asI5
(lp19
F0.03482587064676612
aF0.04477611940298509
aF0.05970149253731338
aF0.07462686567164178
aF0.07960199004975121
aF0.09950248756218905
aF0.10447761194029848
aF0.10447761194029848
aF0.10447761194029848
aF0.1094527363184079
aF0.1094527363184079
aF0.11442786069651745
aF0.13432835820895528
aF0.1393034825870647
aF0.1691542288557214
aF0.1691542288557214
aF0.17412935323383083
aF0.17412935323383083
aF0.1840796019900498
aF0.1840796019900498
aF0.1840796019900498
aF0.18905472636815923
aF0.18905472636815923
aF0.1990049751243781
aF0.20398009950248752
aF0.20895522388059706
aF0.2139303482587065
aF0.22885572139303478
aF0.24378109452736318
aF0.25373134328358204
aF0.28358208955223885
aF0.3084577114427861
aF0.3084577114427861
aF0.32835820895522383
aF0.34328358208955223
aF0.3731343283582089
aF0.3830845771144279
aF0.4577114427860697
aF0.5124378109452736
asI7
(lp20
F0.02487562189054726
aF0.03482587064676612
aF0.04975124378109452
aF0.04975124378109452
aF0.07462686567164178
aF0.09452736318407962
aF0.09452736318407962
aF0.09950248756218905
aF0.09950248756218905
aF0.11940298507462688
aF0.12437810945273631
aF0.12437810945273631
aF0.1393034825870647
aF0.1393034825870647
aF0.17412935323383083
aF0.17412935323383083
aF0.17910447761194026
aF0.17910447761194026
aF0.1840796019900498
aF0.19402985074626866
aF0.21890547263681592
aF0.22388059701492535
aF0.22885572139303478
aF0.23383084577114432
aF0.23880597014925375
aF0.24378109452736318
aF0.24875621890547261
aF0.2736318407960199
aF0.2786069651741293
aF0.28358208955223885
aF0.29850746268656714
aF0.3084577114427861
aF0.3084577114427861
aF0.3233830845771144
aF0.36318407960199006
aF0.36318407960199006
aF0.36318407960199006
aF0.4577114427860697
aF0.5124378109452736
asa(dp21
I10
(lp22
F0.009259259259259259
aF0.08333333333333333
aF0.1388888888888889
aF0.07407407407407407
aF0.09259259259259259
aF0.16666666666666666
aF0.14814814814814814
aF0.12037037037037036
aF0.1388888888888889
aF0.09259259259259259
aF0.10185185185185185
aF0.1574074074074074
aF0.14814814814814814
aF0.1574074074074074
aF0.3425925925925926
aF0.10185185185185185
aF0.14814814814814814
aF0.1574074074074074
aF0.18518518518518517
aF0.24074074074074073
aF0.16666666666666666
aF0.21296296296296297
aF0.19444444444444445
aF0.2037037037037037
aF0.26851851851851855
aF0.23148148148148148
aF0.2037037037037037
aF0.18518518518518517
aF0.25925925925925924
aF0.2777777777777778
aF0.14814814814814814
aF0.21296296296296297
aF0.24074074074074073
aF0.2222222222222222
aF0.21296296296296297
aF0.2962962962962963
aF0.3333333333333333
aF0.3333333333333333
aF0.46296296296296297
asI5
(lp23
F0.009259259259259259
aF0.009259259259259259
aF0.027777777777777776
aF0.09259259259259259
aF0.12962962962962962
aF0.08333333333333333
aF0.046296296296296294
aF0.1111111111111111
aF0.1388888888888889
aF0.12962962962962962
aF0.1388888888888889
aF0.1111111111111111
aF0.07407407407407407
aF0.09259259259259259
aF0.1574074074074074
aF0.2222222222222222
aF0.10185185185185185
aF0.1574074074074074
aF0.16666666666666666
aF0.2037037037037037
aF0.2037037037037037
aF0.14814814814814814
aF0.2037037037037037
aF0.12037037037037036
aF0.17592592592592593
aF0.14814814814814814
aF0.16666666666666666
aF0.21296296296296297
aF0.24074074074074073
aF0.23148148148148148
aF0.26851851851851855
aF0.24074074074074073
aF0.2777777777777778
aF0.23148148148148148
aF0.2037037037037037
aF0.2222222222222222
aF0.21296296296296297
aF0.3333333333333333
aF0.3425925925925926
asI7
(lp24
F0.009259259259259259
aF0.027777777777777776
aF0.009259259259259259
aF0.05555555555555555
aF0.06481481481481481
aF0.07407407407407407
aF0.14814814814814814
aF0.09259259259259259
aF0.1388888888888889
aF0.12962962962962962
aF0.1388888888888889
aF0.2037037037037037
aF0.10185185185185185
aF0.12962962962962962
aF0.14814814814814814
aF0.1574074074074074
aF0.1574074074074074
aF0.3425925925925926
aF0.17592592592592593
aF0.12037037037037036
aF0.1111111111111111
aF0.17592592592592593
aF0.21296296296296297
aF0.2222222222222222
aF0.18518518518518517
aF0.23148148148148148
aF0.24074074074074073
aF0.14814814814814814
aF0.19444444444444445
aF0.2222222222222222
aF0.25925925925925924
aF0.23148148148148148
aF0.2777777777777778
aF0.18518518518518517
aF0.1574074074074074
aF0.21296296296296297
aF0.26851851851851855
aF0.32407407407407407
aF0.3425925925925926
asa(dp25
I10
(lp26
I0
aI0
aF0.2777777777777778
aF0.3425925925925926
aF0.21296296296296297
aF0.1574074074074074
aF0.46296296296296297
aF0.3333333333333333
aF0.21296296296296297
aF0.009259259259259259
aF0.23148148148148148
aF0.07407407407407407
aF0.14814814814814814
aF0.3333333333333333
aF0.14814814814814814
aF0.12037037037037036
aF0.2962962962962963
aF0.1574074074074074
aF0.18518518518518517
aF0.25925925925925924
aF0.19444444444444445
aF0.14814814814814814
aF0.16666666666666666
aF0.09259259259259259
aF0.16666666666666666
aF0.10185185185185185
aF0.10185185185185185
aF0.1388888888888889
aF0.24074074074074073
aF0.08333333333333333
aF0.2037037037037037
aF0.1388888888888889
aF0.24074074074074073
aF0.1574074074074074
aF0.21296296296296297
aF0.26851851851851855
aF0.2222222222222222
aF0.14814814814814814
aF0.09259259259259259
aF0.2037037037037037
aF0.18518518518518517
asI5
(lp27
I0
aI0
aF0.2777777777777778
aF0.2222222222222222
aF0.21296296296296297
aF0.1574074074074074
aF0.2037037037037037
aF0.3333333333333333
aF0.23148148148148148
aF0.027777777777777776
aF0.26851851851851855
aF0.1111111111111111
aF0.2037037037037037
aF0.3425925925925926
aF0.009259259259259259
aF0.14814814814814814
aF0.009259259259259259
aF0.1111111111111111
aF0.2037037037037037
aF0.24074074074074073
aF0.16666666666666666
aF0.17592592592592593
aF0.1574074074074074
aF0.046296296296296294
aF0.1388888888888889
aF0.09259259259259259
aF0.07407407407407407
aF0.12962962962962962
aF0.1388888888888889
aF0.08333333333333333
aF0.12037037037037036
aF0.09259259259259259
aF0.12962962962962962
aF0.16666666666666666
aF0.2037037037037037
aF0.24074074074074073
aF0.2222222222222222
aF0.14814814814814814
aF0.10185185185185185
aF0.21296296296296297
aF0.23148148148148148
asI7
(lp28
I0
aI0
aF0.2777777777777778
aF0.3425925925925926
aF0.1574074074074074
aF0.1574074074074074
aF0.2037037037037037
aF0.32407407407407407
aF0.23148148148148148
aF0.009259259259259259
aF0.25925925925925924
aF0.07407407407407407
aF0.1388888888888889
aF0.3425925925925926
aF0.14814814814814814
aF0.027777777777777776
aF0.009259259259259259
aF0.1574074074074074
aF0.17592592592592593
aF0.23148148148148148
aF0.18518518518518517
aF0.17592592592592593
aF0.12962962962962962
aF0.10185185185185185
aF0.1388888888888889
aF0.12037037037037036
aF0.1111111111111111
aF0.12962962962962962
aF0.2222222222222222
aF0.09259259259259259
aF0.19444444444444445
aF0.06481481481481481
aF0.14814814814814814
aF0.2222222222222222
aF0.18518518518518517
aF0.24074074074074073
aF0.21296296296296297
aF0.14814814814814814
aF0.05555555555555555
aF0.21296296296296297
aF0.26851851851851855
asa(dp29
I10
(lp30
I0
aI0
aF0.6915422885572139
aF0.8208955223880597
aF0.6169154228855721
aF0.8208955223880597
aF0.3582089552238806
aF0.5422885572139303
aF0.7711442786069652
aF0.9502487562189055
aF0.7412935323383084
aF0.9054726368159204
aF0.8905472636815921
aF0.4925373134328358
aF0.681592039800995
aF0.8805970149253731
aF0.6119402985074627
aF0.8507462686567164
aF0.7910447761194029
aF0.6915422885572139
aF0.7562189054726368
aF0.8109452736318408
aF0.7761194029850746
aF0.8955223880597015
aF0.8955223880597015
aF0.8606965174129353
aF0.8159203980099502
aF0.8805970149253731
aF0.7860696517412935
aF0.9104477611940298
aF0.7213930348258707
aF0.9104477611940298
aF0.6467661691542289
aF0.8059701492537313
aF0.6666666666666666
aF0.746268656716418
aF0.6417910447761194
aF0.835820895522388
aF0.8606965174129353
aF0.7512437810945274
aF0.7064676616915423
asI5
(lp31
I0
aI0
aF0.6915422885572139
aF0.8308457711442786
aF0.6169154228855721
aF0.8258706467661692
aF0.8159203980099502
aF0.5422885572139303
aF0.746268656716418
aF0.9402985074626866
aF0.7164179104477612
aF0.8855721393034826
aF0.8109452736318408
aF0.48756218905472637
aF0.9552238805970149
aF0.7910447761194029
aF0.9651741293532339
aF0.8955223880597015
aF0.8159203980099502
aF0.6915422885572139
aF0.7860696517412935
aF0.7960199004975125
aF0.8308457711442786
aF0.8955223880597015
aF0.8905472636815921
aF0.8606965174129353
aF0.8656716417910447
aF0.8905472636815921
aF0.8955223880597015
aF0.900497512437811
aF0.8009950248756219
aF0.9253731343283582
aF0.9203980099502488
aF0.8159203980099502
aF0.6567164179104478
aF0.7562189054726368
aF0.6268656716417911
aF0.8109452736318408
aF0.8258706467661692
aF0.7711442786069652
aF0.6716417910447762
asI7
(lp32
I0
aI0
aF0.6915422885572139
aF0.8208955223880597
aF0.6368159203980099
aF0.8208955223880597
aF0.8756218905472637
aF0.5422885572139303
aF0.7562189054726368
aF0.9502487562189055
aF0.7014925373134329
aF0.9054726368159204
aF0.900497512437811
aF0.48756218905472637
aF0.7263681592039801
aF0.9651741293532339
aF0.9751243781094527
aF0.8258706467661692
aF0.8159203980099502
aF0.6915422885572139
aF0.7611940298507462
aF0.7761194029850746
aF0.8606965174129353
aF0.8606965174129353
aF0.8756218905472637
aF0.8059701492537313
aF0.7810945273631841
aF0.8805970149253731
aF0.7661691542288557
aF0.900497512437811
aF0.7213930348258707
aF0.9253731343283582
aF0.9054726368159204
aF0.7164179104477612
aF0.6766169154228856
aF0.7512437810945274
aF0.6368159203980099
aF0.8258706467661692
aF0.9502487562189055
aF0.7711442786069652
aF0.6368159203980099
asa(dp33
I10
(lp34
I0
aI0
aF0.0
aF0.32857142857142857
aF0.0
aF0.04285714285714286
aF0.17142857142857143
aF0.08571428571428572
aF0.014285714285714285
aF0.0
aF0.08571428571428572
aF0.02857142857142857
aF0.08571428571428572
aF0.04285714285714286
aF0.0
aF0.0
aF0.0
aF0.04285714285714286
aF0.1
aF0.1
aF0.05714285714285714
aF0.0
aF0.07142857142857142
aF0.04285714285714286
aF0.1
aF0.04285714285714286
aF0.04285714285714286
aF0.14285714285714285
aF0.2
aF0.07142857142857142
aF0.04285714285714286
aF0.12857142857142856
aF0.08571428571428572
aF0.05714285714285714
aF0.04285714285714286
aF0.14285714285714285
aF0.04285714285714286
aF0.04285714285714286
aF0.04285714285714286
aF0.05714285714285714
aF0.04285714285714286
asI5
(lp35
I0
aI0
aF0.0
aF0.14285714285714285
aF0.0
aF0.04285714285714286
aF0.17142857142857143
aF0.08571428571428572
aF0.014285714285714285
aF0.0
aF0.08571428571428572
aF0.02857142857142857
aF0.07142857142857142
aF0.04285714285714286
aF0.0
aF0.0
aF0.0
aF0.02857142857142857
aF0.11428571428571428
aF0.07142857142857142
aF0.014285714285714285
aF0.04285714285714286
aF0.07142857142857142
aF0.02857142857142857
aF0.05714285714285714
aF0.02857142857142857
aF0.014285714285714285
aF0.14285714285714285
aF0.11428571428571428
aF0.07142857142857142
aF0.02857142857142857
aF0.07142857142857142
aF0.1
aF0.07142857142857142
aF0.02857142857142857
aF0.08571428571428572
aF0.07142857142857142
aF0.04285714285714286
aF0.04285714285714286
aF0.11428571428571428
aF0.04285714285714286
asI7
(lp36
I0
aI0
aF0.0
aF0.32857142857142857
aF0.0
aF0.04285714285714286
aF0.17142857142857143
aF0.07142857142857142
aF0.014285714285714285
aF0.0
aF0.07142857142857142
aF0.02857142857142857
aF0.07142857142857142
aF0.04285714285714286
aF0.0
aF0.0
aF0.0
aF0.04285714285714286
aF0.1
aF0.07142857142857142
aF0.04285714285714286
aF0.04285714285714286
aF0.11428571428571428
aF0.07142857142857142
aF0.05714285714285714
aF0.02857142857142857
aF0.014285714285714285
aF0.14285714285714285
aF0.17142857142857143
aF0.08571428571428572
aF0.02857142857142857
aF0.02857142857142857
aF0.11428571428571428
aF0.07142857142857142
aF0.02857142857142857
aF0.1
aF0.04285714285714286
aF0.04285714285714286
aF0.04285714285714286
aF0.11428571428571428
aF0.05714285714285714
asa(dp37
I10
(lp38
I0
aI0
aF1.0
aF0.92
aF0.9733333333333334
aF0.96
aF0.96
aF0.96
aF0.9733333333333334
aF0.9866666666666667
aF0.96
aF0.9733333333333334
aF0.8933333333333333
aF0.9466666666666667
aF1.0
aF1.0
aF1.0
aF0.9733333333333334
aF0.9733333333333334
aF0.9866666666666667
aF0.96
aF1.0
aF0.9466666666666667
aF0.9333333333333333
aF0.9866666666666667
aF0.9733333333333334
aF0.9733333333333334
aF0.92
aF0.9466666666666667
aF0.9333333333333333
aF0.96
aF0.96
aF0.8933333333333333
aF0.96
aF0.96
aF0.9733333333333334
aF0.9866666666666667
aF1.0
aF0.9866666666666667
aF0.9733333333333334
aF0.9733333333333334
asI5
(lp39
I0
aI0
aF1.0
aF0.96
aF0.9733333333333334
aF0.96
aF0.96
aF0.96
aF0.9733333333333334
aF0.9866666666666667
aF0.9733333333333334
aF0.9733333333333334
aF0.92
aF0.9466666666666667
aF1.0
aF1.0
aF0.9866666666666667
aF0.9733333333333334
aF0.9866666666666667
aF0.9866666666666667
aF1.0
aF0.9733333333333334
aF0.9733333333333334
aF0.96
aF0.9866666666666667
aF0.9733333333333334
aF0.9733333333333334
aF0.92
aF0.9466666666666667
aF0.9066666666666666
aF0.9733333333333334
aF1.0
aF0.9066666666666666
aF0.9466666666666667
aF0.96
aF0.9866666666666667
aF0.8666666666666667
aF0.9733333333333334
aF0.9866666666666667
aF0.96
aF0.96
asI7
(lp40
I0
aI0
aF1.0
aF0.92
aF0.9733333333333334
aF0.96
aF0.96
aF0.96
aF0.9733333333333334
aF0.9866666666666667
aF0.9466666666666667
aF0.9733333333333334
aF0.92
aF0.9466666666666667
aF1.0
aF1.0
aF0.9866666666666667
aF0.9733333333333334
aF0.9733333333333334
aF0.9866666666666667
aF0.9733333333333334
aF0.9733333333333334
aF0.92
aF0.92
aF0.9866666666666667
aF0.9733333333333334
aF0.9866666666666667
aF0.8933333333333333
aF0.9333333333333333
aF0.9066666666666666
aF0.9733333333333334
aF1.0
aF0.9066666666666666
aF0.9466666666666667
aF0.9733333333333334
aF0.9866666666666667
aF0.9866666666666667
aF1.0
aF0.9866666666666667
aF0.96
aF0.9733333333333334
asa(dp41
I10
(lp42
F0.0
aF0.0
aF0.0
aF0.0
aF0.0
aF0.0
aF0.013333333333333308
aF0.013333333333333308
aF0.013333333333333308
aF0.013333333333333308
aF0.013333333333333308
aF0.026666666666666616
aF0.026666666666666616
aF0.026666666666666616
aF0.026666666666666616
aF0.026666666666666616
aF0.026666666666666616
aF0.026666666666666616
aF0.026666666666666616
aF0.026666666666666616
aF0.026666666666666616
aF0.040000000000000036
aF0.040000000000000036
aF0.040000000000000036
aF0.040000000000000036
aF0.040000000000000036
aF0.040000000000000036
aF0.040000000000000036
aF0.040000000000000036
aF0.040000000000000036
aF0.053333333333333344
aF0.053333333333333344
aF0.053333333333333344
aF0.06666666666666665
aF0.06666666666666665
aF0.07999999999999996
aF0.07999999999999996
aF0.10666666666666669
aF0.10666666666666669
asI5
(lp43
F0.0
aF0.0
aF0.0
aF0.0
aF0.0
aF0.013333333333333308
aF0.013333333333333308
aF0.013333333333333308
aF0.013333333333333308
aF0.013333333333333308
aF0.013333333333333308
aF0.013333333333333308
aF0.026666666666666616
aF0.026666666666666616
aF0.026666666666666616
aF0.026666666666666616
aF0.026666666666666616
aF0.026666666666666616
aF0.026666666666666616
aF0.026666666666666616
aF0.026666666666666616
aF0.026666666666666616
aF0.026666666666666616
aF0.040000000000000036
aF0.040000000000000036
aF0.040000000000000036
aF0.040000000000000036
aF0.040000000000000036
aF0.040000000000000036
aF0.040000000000000036
aF0.040000000000000036
aF0.053333333333333344
aF0.053333333333333344
aF0.053333333333333344
aF0.07999999999999996
aF0.07999999999999996
aF0.09333333333333338
aF0.09333333333333338
aF0.1333333333333333
asI7
(lp44
F0.0
aF0.0
aF0.0
aF0.0
aF0.0
aF0.013333333333333308
aF0.013333333333333308
aF0.013333333333333308
aF0.013333333333333308
aF0.013333333333333308
aF0.013333333333333308
aF0.013333333333333308
aF0.013333333333333308
aF0.026666666666666616
aF0.026666666666666616
aF0.026666666666666616
aF0.026666666666666616
aF0.026666666666666616
aF0.026666666666666616
aF0.026666666666666616
aF0.026666666666666616
aF0.026666666666666616
aF0.026666666666666616
aF0.026666666666666616
aF0.040000000000000036
aF0.040000000000000036
aF0.040000000000000036
aF0.040000000000000036
aF0.053333333333333344
aF0.053333333333333344
aF0.053333333333333344
aF0.06666666666666665
aF0.07999999999999996
aF0.07999999999999996
aF0.07999999999999996
aF0.07999999999999996
aF0.09333333333333338
aF0.09333333333333338
aF0.10666666666666669
asa(dp45
I10
(lp46
F0.0
aF0.0
aF0.0
aF0.0
aF0.0
aF0.04285714285714286
aF0.0
aF0.04285714285714286
aF0.04285714285714286
aF0.1
aF0.1
aF0.0
aF0.014285714285714285
aF0.02857142857142857
aF0.04285714285714286
aF0.04285714285714286
aF0.04285714285714286
aF0.04285714285714286
aF0.05714285714285714
aF0.1
aF0.14285714285714285
aF0.04285714285714286
aF0.04285714285714286
aF0.04285714285714286
aF0.05714285714285714
aF0.05714285714285714
aF0.08571428571428572
aF0.08571428571428572
aF0.12857142857142856
aF0.17142857142857143
aF0.04285714285714286
aF0.07142857142857142
aF0.2
aF0.04285714285714286
aF0.07142857142857142
aF0.14285714285714285
aF0.32857142857142857
aF0.08571428571428572
aF0.08571428571428572
asI5
(lp47
F0.0
aF0.0
aF0.0
aF0.014285714285714285
aF0.07142857142857142
aF0.0
aF0.0
aF0.04285714285714286
aF0.05714285714285714
aF0.07142857142857142
aF0.08571428571428572
aF0.11428571428571428
aF0.0
aF0.014285714285714285
aF0.014285714285714285
aF0.02857142857142857
aF0.02857142857142857
aF0.02857142857142857
aF0.02857142857142857
aF0.04285714285714286
aF0.04285714285714286
aF0.07142857142857142
aF0.08571428571428572
aF0.02857142857142857
aF0.02857142857142857
aF0.04285714285714286
aF0.04285714285714286
aF0.08571428571428572
aF0.11428571428571428
aF0.14285714285714285
aF0.17142857142857143
aF0.04285714285714286
aF0.07142857142857142
aF0.11428571428571428
aF0.07142857142857142
aF0.14285714285714285
aF0.07142857142857142
aF0.1
aF0.07142857142857142
asI7
(lp48
F0.0
aF0.0
aF0.0
aF0.02857142857142857
aF0.04285714285714286
aF0.0
aF0.0
aF0.014285714285714285
aF0.04285714285714286
aF0.04285714285714286
aF0.05714285714285714
aF0.07142857142857142
aF0.1
aF0.0
aF0.014285714285714285
aF0.02857142857142857
aF0.02857142857142857
aF0.02857142857142857
aF0.02857142857142857
aF0.04285714285714286
aF0.04285714285714286
aF0.04285714285714286
aF0.05714285714285714
aF0.1
aF0.04285714285714286
aF0.07142857142857142
aF0.11428571428571428
aF0.17142857142857143
aF0.04285714285714286
aF0.07142857142857142
aF0.07142857142857142
aF0.17142857142857143
aF0.07142857142857142
aF0.07142857142857142
aF0.11428571428571428
aF0.32857142857142857
aF0.08571428571428572
aF0.11428571428571428
aF0.14285714285714285
asaI1
a(lp49
I5
aI7
aI10
aa.